ccopy_reg
_reconstructor
p0
(cnltk.classify.naivebayes
NaiveBayesClassifier
p1
c__builtin__
object
p2
Ntp3
Rp4
(dp5
S'_labels'
p6
(lp7
S'neg'
p8
aS'pos'
p9
asS'_feature_probdist'
p10
(dp11
(g9
S'headset.be'
p12
tp13
g0
(cnltk.probability
ELEProbDist
p14
g2
Ntp15
Rp16
(dp17
S'_gamma'
p18
F0.5
sS'_N'
p19
I51513
sS'_freqdist'
p20
cnltk.probability
FreqDist
p21
((dp22
I00
I51512
sI01
I1
stp23
Rp24
sS'_bins'
p25
I2
sS'_divisor'
p26
F51514.0
sbs(g8
S'sgp10453'
p27
tp28
g0
(g14
g2
Ntp29
Rp30
(dp31
g18
F0.5
sg19
I7495
sg20
g21
((dp32
I00
I7495
stp33
Rp34
sg25
I1
sg26
F7495.5
sbs(g8
S'lifeline'
p35
tp36
g0
(g14
g2
Ntp37
Rp38
(dp39
g18
F0.5
sg19
I7495
sg20
g21
((dp40
I00
I7494
sI01
I1
stp41
Rp42
sg25
I2
sg26
F7496.0
sbs(g8
S'kids'
p43
tp44
g0
(g14
g2
Ntp45
Rp46
(dp47
g18
F0.5
sg19
I7495
sg20
g21
((dp48
I00
I7474
sI01
I21
stp49
Rp50
sg25
I2
sg26
F7496.0
sbs(g8
S'tolerances.under'
p51
tp52
g0
(g14
g2
Ntp53
Rp54
(dp55
g18
F0.5
sg19
I7495
sg20
g21
((dp56
I00
I7495
stp57
Rp58
sg25
I2
sg26
F7496.0
sbs(g9
S"'extras'.-"
p59
tp60
g0
(g14
g2
Ntp61
Rp62
(dp63
g18
F0.5
sg19
I51513
sg20
g21
((dp64
I00
I51512
sI01
I1
stp65
Rp66
sg25
I2
sg26
F51514.0
sbs(g8
S'intake'
p67
tp68
g0
(g14
g2
Ntp69
Rp70
(dp71
g18
F0.5
sg19
I7495
sg20
g21
((dp72
I00
I7494
sI01
I1
stp73
Rp74
sg25
I2
sg26
F7496.0
sbs(g9
S'wrong'
p75
tp76
g0
(g14
g2
Ntp77
Rp78
(dp79
g18
F0.5
sg19
I51513
sg20
g21
((dp80
I00
I50627
sI01
I886
stp81
Rp82
sg25
I2
sg26
F51514.0
sbs(g9
g35
tp83
g0
(g14
g2
Ntp84
Rp85
(dp86
g18
F0.5
sg19
I51513
sg20
g21
((dp87
I00
I51508
sI01
I5
stp88
Rp89
sg25
I2
sg26
F51514.0
sbs(g8
S'everything.i'
p90
tp91
g0
(g14
g2
Ntp92
Rp93
(dp94
g18
F0.5
sg19
I7495
sg20
g21
((dp95
I00
I7495
stp96
Rp97
sg25
I2
sg26
F7496.0
sbs(g9
S'builtright'
p98
tp99
g0
(g14
g2
Ntp100
Rp101
(dp102
g18
F0.5
sg19
I51513
sg20
g21
((dp103
I00
I51512
sI01
I1
stp104
Rp105
sg25
I2
sg26
F51514.0
sbs(g9
S'motorolla'
p106
tp107
g0
(g14
g2
Ntp108
Rp109
(dp110
g18
F0.5
sg19
I51513
sg20
g21
((dp111
I00
I51502
sI01
I11
stp112
Rp113
sg25
I2
sg26
F51514.0
sbs(g9
S'wand'
p114
tp115
g0
(g14
g2
Ntp116
Rp117
(dp118
g18
F0.5
sg19
I51513
sg20
g21
((dp119
I00
I51510
sI01
I3
stp120
Rp121
sg25
I2
sg26
F51514.0
sbs(g9
S'activating'
p122
tp123
g0
(g14
g2
Ntp124
Rp125
(dp126
g18
F0.5
sg19
I51513
sg20
g21
((dp127
I00
I51474
sI01
I39
stp128
Rp129
sg25
I2
sg26
F51514.0
sbs(g9
S'hanging'
p130
tp131
g0
(g14
g2
Ntp132
Rp133
(dp134
g18
F0.5
sg19
I51513
sg20
g21
((dp135
I00
I51334
sI01
I179
stp136
Rp137
sg25
I2
sg26
F51514.0
sbs(g8
S'-grease'
p138
tp139
g0
(g14
g2
Ntp140
Rp141
(dp142
g18
F0.5
sg19
I7495
sg20
g21
((dp143
I00
I7495
stp144
Rp145
sg25
I2
sg26
F7496.0
sbs(g9
S'acurately'
p146
tp147
g0
(g14
g2
Ntp148
Rp149
(dp150
g18
F0.5
sg19
I51513
sg20
g21
((dp151
I00
I51513
stp152
Rp153
sg25
I1
sg26
F51513.5
sbs(g9
S'stern'
p154
tp155
g0
(g14
g2
Ntp156
Rp157
(dp158
g18
F0.5
sg19
I51513
sg20
g21
((dp159
I00
I51513
stp160
Rp161
sg25
I2
sg26
F51514.0
sbs(g9
S'w/lots'
p162
tp163
g0
(g14
g2
Ntp164
Rp165
(dp166
g18
F0.5
sg19
I51513
sg20
g21
((dp167
I00
I51513
stp168
Rp169
sg25
I2
sg26
F51514.0
sbs(g8
S'considered2'
p170
tp171
g0
(g14
g2
Ntp172
Rp173
(dp174
g18
F0.5
sg19
I7495
sg20
g21
((dp175
I00
I7495
stp176
Rp177
sg25
I2
sg26
F7496.0
sbs(g9
g170
tp178
g0
(g14
g2
Ntp179
Rp180
(dp181
g18
F0.5
sg19
I51513
sg20
g21
((dp182
I00
I51512
sI01
I1
stp183
Rp184
sg25
I2
sg26
F51514.0
sbs(g8
g114
tp185
g0
(g14
g2
Ntp186
Rp187
(dp188
g18
F0.5
sg19
I7495
sg20
g21
((dp189
I00
I7495
stp190
Rp191
sg25
I2
sg26
F7496.0
sbs(g9
S'life.=='
p192
tp193
g0
(g14
g2
Ntp194
Rp195
(dp196
g18
F0.5
sg19
I51513
sg20
g21
((dp197
I00
I51512
sI01
I1
stp198
Rp199
sg25
I2
sg26
F51514.0
sbs(g9
S'hastily'
p200
tp201
g0
(g14
g2
Ntp202
Rp203
(dp204
g18
F0.5
sg19
I51513
sg20
g21
((dp205
I00
I51513
stp206
Rp207
sg25
I1
sg26
F51513.5
sbs(g8
S'beyer'
p208
tp209
g0
(g14
g2
Ntp210
Rp211
(dp212
g18
F0.5
sg19
I7495
sg20
g21
((dp213
I00
I7495
stp214
Rp215
sg25
I2
sg26
F7496.0
sbs(g8
g154
tp216
g0
(g14
g2
Ntp217
Rp218
(dp219
g18
F0.5
sg19
I7495
sg20
g21
((dp220
I00
I7494
sI01
I1
stp221
Rp222
sg25
I2
sg26
F7496.0
sbs(g8
S'cruizerlite'
p223
tp224
g0
(g14
g2
Ntp225
Rp226
(dp227
g18
F0.5
sg19
I7495
sg20
g21
((dp228
I00
I7495
stp229
Rp230
sg25
I2
sg26
F7496.0
sbs(g8
S'krait'
p231
tp232
g0
(g14
g2
Ntp233
Rp234
(dp235
g18
F0.5
sg19
I7495
sg20
g21
((dp236
I00
I7495
stp237
Rp238
sg25
I2
sg26
F7496.0
sbs(g9
S'away.they'
p239
tp240
g0
(g14
g2
Ntp241
Rp242
(dp243
g18
F0.5
sg19
I51513
sg20
g21
((dp244
I00
I51513
stp245
Rp246
sg25
I1
sg26
F51513.5
sbs(g9
S'wood*'
p247
tp248
g0
(g14
g2
Ntp249
Rp250
(dp251
g18
F0.5
sg19
I51513
sg20
g21
((dp252
I00
I51511
sI01
I2
stp253
Rp254
sg25
I2
sg26
F51514.0
sbs(g9
S'dns'
p255
tp256
g0
(g14
g2
Ntp257
Rp258
(dp259
g18
F0.5
sg19
I51513
sg20
g21
((dp260
I00
I51512
sI01
I1
stp261
Rp262
sg25
I2
sg26
F51514.0
sbs(g9
S'owned/tried'
p263
tp264
g0
(g14
g2
Ntp265
Rp266
(dp267
g18
F0.5
sg19
I51513
sg20
g21
((dp268
I00
I51512
sI01
I1
stp269
Rp270
sg25
I2
sg26
F51514.0
sbs(g9
S'condition.this'
p271
tp272
g0
(g14
g2
Ntp273
Rp274
(dp275
g18
F0.5
sg19
I51513
sg20
g21
((dp276
I00
I51512
sI01
I1
stp277
Rp278
sg25
I2
sg26
F51514.0
sbs(g8
S'100-150'
p279
tp280
g0
(g14
g2
Ntp281
Rp282
(dp283
g18
F0.5
sg19
I7495
sg20
g21
((dp284
I00
I7495
stp285
Rp286
sg25
I2
sg26
F7496.0
sbs(g9
S'great.one'
p287
tp288
g0
(g14
g2
Ntp289
Rp290
(dp291
g18
F0.5
sg19
I51513
sg20
g21
((dp292
I00
I51512
sI01
I1
stp293
Rp294
sg25
I2
sg26
F51514.0
sbs(g8
S'mesmerize'
p295
tp296
g0
(g14
g2
Ntp297
Rp298
(dp299
g18
F0.5
sg19
I7495
sg20
g21
((dp300
I00
I7495
stp301
Rp302
sg25
I2
sg26
F7496.0
sbs(g9
S'gaskets'
p303
tp304
g0
(g14
g2
Ntp305
Rp306
(dp307
g18
F0.5
sg19
I51513
sg20
g21
((dp308
I00
I51511
sI01
I2
stp309
Rp310
sg25
I2
sg26
F51514.0
sbs(g8
S'ipad/iphone/ipod'
p311
tp312
g0
(g14
g2
Ntp313
Rp314
(dp315
g18
F0.5
sg19
I7495
sg20
g21
((dp316
I00
I7495
stp317
Rp318
sg25
I2
sg26
F7496.0
sbs(g8
S'^***'
p319
tp320
g0
(g14
g2
Ntp321
Rp322
(dp323
g18
F0.5
sg19
I7495
sg20
g21
((dp324
I00
I7494
sI01
I1
stp325
Rp326
sg25
I2
sg26
F7496.0
sbs(g8
S'mdr-nc40'
p327
tp328
g0
(g14
g2
Ntp329
Rp330
(dp331
g18
F0.5
sg19
I7495
sg20
g21
((dp332
I00
I7495
stp333
Rp334
sg25
I2
sg26
F7496.0
sbs(g9
S'ultimatley'
p335
tp336
g0
(g14
g2
Ntp337
Rp338
(dp339
g18
F0.5
sg19
I51513
sg20
g21
((dp340
I00
I51512
sI01
I1
stp341
Rp342
sg25
I2
sg26
F51514.0
sbs(g9
S'uselessness'
p343
tp344
g0
(g14
g2
Ntp345
Rp346
(dp347
g18
F0.5
sg19
I51513
sg20
g21
((dp348
I00
I51512
sI01
I1
stp349
Rp350
sg25
I2
sg26
F51514.0
sbs(g8
S'errors'
p351
tp352
g0
(g14
g2
Ntp353
Rp354
(dp355
g18
F0.5
sg19
I7495
sg20
g21
((dp356
I00
I7487
sI01
I8
stp357
Rp358
sg25
I2
sg26
F7496.0
sbs(g9
S'viable'
p359
tp360
g0
(g14
g2
Ntp361
Rp362
(dp363
g18
F0.5
sg19
I51513
sg20
g21
((dp364
I00
I51498
sI01
I15
stp365
Rp366
sg25
I2
sg26
F51514.0
sbs(g8
S'perforations'
p367
tp368
g0
(g14
g2
Ntp369
Rp370
(dp371
g18
F0.5
sg19
I7495
sg20
g21
((dp372
I00
I7495
stp373
Rp374
sg25
I2
sg26
F7496.0
sbs(g9
g367
tp375
g0
(g14
g2
Ntp376
Rp377
(dp378
g18
F0.5
sg19
I51513
sg20
g21
((dp379
I00
I51509
sI01
I4
stp380
Rp381
sg25
I2
sg26
F51514.0
sbs(g8
S'nicestest'
p382
tp383
g0
(g14
g2
Ntp384
Rp385
(dp386
g18
F0.5
sg19
I7495
sg20
g21
((dp387
I00
I7495
stp388
Rp389
sg25
I2
sg26
F7496.0
sbs(g8
S'freezing/crashing'
p390
tp391
g0
(g14
g2
Ntp392
Rp393
(dp394
g18
F0.5
sg19
I7495
sg20
g21
((dp395
I00
I7493
sI01
I2
stp396
Rp397
sg25
I2
sg26
F7496.0
sbs(g9
g390
tp398
g0
(g14
g2
Ntp399
Rp400
(dp401
g18
F0.5
sg19
I51513
sg20
g21
((dp402
I00
I51513
stp403
Rp404
sg25
I2
sg26
F51514.0
sbs(g8
g343
tp405
g0
(g14
g2
Ntp406
Rp407
(dp408
g18
F0.5
sg19
I7495
sg20
g21
((dp409
I00
I7495
stp410
Rp411
sg25
I2
sg26
F7496.0
sbs(g9
S'xtremeand'
p412
tp413
g0
(g14
g2
Ntp414
Rp415
(dp416
g18
F0.5
sg19
I51513
sg20
g21
((dp417
I00
I51512
sI01
I1
stp418
Rp419
sg25
I2
sg26
F51514.0
sbs(g8
S'connector.there'
p420
tp421
g0
(g14
g2
Ntp422
Rp423
(dp424
g18
F0.5
sg19
I7495
sg20
g21
((dp425
I00
I7495
stp426
Rp427
sg25
I2
sg26
F7496.0
sbs(g9
S'noticing.3'
p428
tp429
g0
(g14
g2
Ntp430
Rp431
(dp432
g18
F0.5
sg19
I51513
sg20
g21
((dp433
I00
I51513
stp434
Rp435
sg25
I2
sg26
F51514.0
sbs(g8
S'circuitry'
p436
tp437
g0
(g14
g2
Ntp438
Rp439
(dp440
g18
F0.5
sg19
I7495
sg20
g21
((dp441
I00
I7490
sI01
I5
stp442
Rp443
sg25
I2
sg26
F7496.0
sbs(g9
S'sedc'
p444
tp445
g0
(g14
g2
Ntp446
Rp447
(dp448
g18
F0.5
sg19
I51513
sg20
g21
((dp449
I00
I51512
sI01
I1
stp450
Rp451
sg25
I2
sg26
F51514.0
sbs(g8
S'fitest'
p452
tp453
g0
(g14
g2
Ntp454
Rp455
(dp456
g18
F0.5
sg19
I7495
sg20
g21
((dp457
I00
I7495
stp458
Rp459
sg25
I2
sg26
F7496.0
sbs(g9
S'everything.-'
p460
tp461
g0
(g14
g2
Ntp462
Rp463
(dp464
g18
F0.5
sg19
I51513
sg20
g21
((dp465
I00
I51512
sI01
I1
stp466
Rp467
sg25
I2
sg26
F51514.0
sbs(g9
S'callspedometertake'
p468
tp469
g0
(g14
g2
Ntp470
Rp471
(dp472
g18
F0.5
sg19
I51513
sg20
g21
((dp473
I00
I51512
sI01
I1
stp474
Rp475
sg25
I2
sg26
F51514.0
sbs(g8
S'snugly'
p476
tp477
g0
(g14
g2
Ntp478
Rp479
(dp480
g18
F0.5
sg19
I7495
sg20
g21
((dp481
I00
I7474
sI01
I21
stp482
Rp483
sg25
I2
sg26
F7496.0
sbs(g9
S'carpool-running'
p484
tp485
g0
(g14
g2
Ntp486
Rp487
(dp488
g18
F0.5
sg19
I51513
sg20
g21
((dp489
I00
I51512
sI01
I1
stp490
Rp491
sg25
I2
sg26
F51514.0
sbs(g8
g255
tp492
g0
(g14
g2
Ntp493
Rp494
(dp495
g18
F0.5
sg19
I7495
sg20
g21
((dp496
I00
I7494
sI01
I1
stp497
Rp498
sg25
I2
sg26
F7496.0
sbs(g8
S'wooden'
p499
tp500
g0
(g14
g2
Ntp501
Rp502
(dp503
g18
F0.5
sg19
I7495
sg20
g21
((dp504
I00
I7492
sI01
I3
stp505
Rp506
sg25
I2
sg26
F7496.0
sbs(g8
g444
tp507
g0
(g14
g2
Ntp508
Rp509
(dp510
g18
F0.5
sg19
I7495
sg20
g21
((dp511
I00
I7495
stp512
Rp513
sg25
I2
sg26
F7496.0
sbs(g8
S'had.now'
p514
tp515
g0
(g14
g2
Ntp516
Rp517
(dp518
g18
F0.5
sg19
I7495
sg20
g21
((dp519
I00
I7495
stp520
Rp521
sg25
I2
sg26
F7496.0
sbs(g8
S'screaming'
p522
tp523
g0
(g14
g2
Ntp524
Rp525
(dp526
g18
F0.5
sg19
I7495
sg20
g21
((dp527
I00
I7492
sI01
I3
stp528
Rp529
sg25
I2
sg26
F7496.0
sbs(g9
S'unlocked.i'
p530
tp531
g0
(g14
g2
Ntp532
Rp533
(dp534
g18
F0.5
sg19
I51513
sg20
g21
((dp535
I00
I51511
sI01
I2
stp536
Rp537
sg25
I2
sg26
F51514.0
sbs(g8
g263
tp538
g0
(g14
g2
Ntp539
Rp540
(dp541
g18
F0.5
sg19
I7495
sg20
g21
((dp542
I00
I7495
stp543
Rp544
sg25
I2
sg26
F7496.0
sbs(g8
S'listenin'
p545
tp546
g0
(g14
g2
Ntp547
Rp548
(dp549
g18
F0.5
sg19
I7495
sg20
g21
((dp550
I00
I7495
stp551
Rp552
sg25
I2
sg26
F7496.0
sbs(g8
S'removed.syncing'
p553
tp554
g0
(g14
g2
Ntp555
Rp556
(dp557
g18
F0.5
sg19
I7495
sg20
g21
((dp558
I00
I7495
stp559
Rp560
sg25
I2
sg26
F7496.0
sbs(g9
S'titanium'
p561
tp562
g0
(g14
g2
Ntp563
Rp564
(dp565
g18
F0.5
sg19
I51513
sg20
g21
((dp566
I00
I51494
sI01
I19
stp567
Rp568
sg25
I2
sg26
F51514.0
sbs(g8
S'meat-eating'
p569
tp570
g0
(g14
g2
Ntp571
Rp572
(dp573
g18
F0.5
sg19
I7495
sg20
g21
((dp574
I00
I7495
stp575
Rp576
sg25
I2
sg26
F7496.0
sbs(g9
g522
tp577
g0
(g14
g2
Ntp578
Rp579
(dp580
g18
F0.5
sg19
I51513
sg20
g21
((dp581
I00
I51501
sI01
I12
stp582
Rp583
sg25
I2
sg26
F51514.0
sbs(g8
S'designing'
p584
tp585
g0
(g14
g2
Ntp586
Rp587
(dp588
g18
F0.5
sg19
I7495
sg20
g21
((dp589
I00
I7494
sI01
I1
stp590
Rp591
sg25
I2
sg26
F7496.0
sbs(g9
S'fit'
p592
tp593
g0
(g14
g2
Ntp594
Rp595
(dp596
g18
F0.5
sg19
I51513
sg20
g21
((dp597
I00
I45791
sI01
I5722
stp598
Rp599
sg25
I2
sg26
F51514.0
sbs(g9
S'travel'
p600
tp601
g0
(g14
g2
Ntp602
Rp603
(dp604
g18
F0.5
sg19
I51513
sg20
g21
((dp605
I00
I50705
sI01
I808
stp606
Rp607
sg25
I2
sg26
F51514.0
sbs(g9
S'away.gaming'
p608
tp609
g0
(g14
g2
Ntp610
Rp611
(dp612
g18
F0.5
sg19
I51513
sg20
g21
((dp613
I00
I51512
sI01
I1
stp614
Rp615
sg25
I2
sg26
F51514.0
sbs(g9
S'yikes.after'
p616
tp617
g0
(g14
g2
Ntp618
Rp619
(dp620
g18
F0.5
sg19
I51513
sg20
g21
((dp621
I00
I51513
stp622
Rp623
sg25
I2
sg26
F51514.0
sbs(g8
S'pigment'
p624
tp625
g0
(g14
g2
Ntp626
Rp627
(dp628
g18
F0.5
sg19
I7495
sg20
g21
((dp629
I00
I7494
sI01
I1
stp630
Rp631
sg25
I2
sg26
F7496.0
sbs(g9
g624
tp632
g0
(g14
g2
Ntp633
Rp634
(dp635
g18
F0.5
sg19
I51513
sg20
g21
((dp636
I00
I51513
stp637
Rp638
sg25
I2
sg26
F51514.0
sbs(g9
S'wekes'
p639
tp640
g0
(g14
g2
Ntp641
Rp642
(dp643
g18
F0.5
sg19
I51513
sg20
g21
((dp644
I00
I51512
sI01
I1
stp645
Rp646
sg25
I2
sg26
F51514.0
sbs(g9
S'years.when'
p647
tp648
g0
(g14
g2
Ntp649
Rp650
(dp651
g18
F0.5
sg19
I51513
sg20
g21
((dp652
I00
I51513
stp653
Rp654
sg25
I2
sg26
F51514.0
sbs(g8
S'impossibly'
p655
tp656
g0
(g14
g2
Ntp657
Rp658
(dp659
g18
F0.5
sg19
I7495
sg20
g21
((dp660
I00
I7495
stp661
Rp662
sg25
I2
sg26
F7496.0
sbs(g9
S'super-handy'
p663
tp664
g0
(g14
g2
Ntp665
Rp666
(dp667
g18
F0.5
sg19
I51513
sg20
g21
((dp668
I00
I51511
sI01
I2
stp669
Rp670
sg25
I2
sg26
F51514.0
sbs(g9
S'blinding.other'
p671
tp672
g0
(g14
g2
Ntp673
Rp674
(dp675
g18
F0.5
sg19
I51513
sg20
g21
((dp676
I00
I51512
sI01
I1
stp677
Rp678
sg25
I2
sg26
F51514.0
sbs(g9
S'clumsy..especially'
p679
tp680
g0
(g14
g2
Ntp681
Rp682
(dp683
g18
F0.5
sg19
I51513
sg20
g21
((dp684
I00
I51513
stp685
Rp686
sg25
I1
sg26
F51513.5
sbs(g8
g663
tp687
g0
(g14
g2
Ntp688
Rp689
(dp690
g18
F0.5
sg19
I7495
sg20
g21
((dp691
I00
I7495
stp692
Rp693
sg25
I2
sg26
F7496.0
sbs(g9
S'earpiece.pros'
p694
tp695
g0
(g14
g2
Ntp696
Rp697
(dp698
g18
F0.5
sg19
I51513
sg20
g21
((dp699
I00
I51512
sI01
I1
stp700
Rp701
sg25
I2
sg26
F51514.0
sbs(g9
S'tf300t'
p702
tp703
g0
(g14
g2
Ntp704
Rp705
(dp706
g18
F0.5
sg19
I51513
sg20
g21
((dp707
I00
I51511
sI01
I2
stp708
Rp709
sg25
I2
sg26
F51514.0
sbs(g9
S'discribed'
p710
tp711
g0
(g14
g2
Ntp712
Rp713
(dp714
g18
F0.5
sg19
I51513
sg20
g21
((dp715
I00
I51512
sI01
I1
stp716
Rp717
sg25
I2
sg26
F51514.0
sbs(g9
S'-aptx'
p718
tp719
g0
(g14
g2
Ntp720
Rp721
(dp722
g18
F0.5
sg19
I51513
sg20
g21
((dp723
I00
I51512
sI01
I1
stp724
Rp725
sg25
I2
sg26
F51514.0
sbs(g9
S'dierections'
p726
tp727
g0
(g14
g2
Ntp728
Rp729
(dp730
g18
F0.5
sg19
I51513
sg20
g21
((dp731
I00
I51513
stp732
Rp733
sg25
I2
sg26
F51514.0
sbs(g9
S'domes'
p734
tp735
g0
(g14
g2
Ntp736
Rp737
(dp738
g18
F0.5
sg19
I51513
sg20
g21
((dp739
I00
I51512
sI01
I1
stp740
Rp741
sg25
I2
sg26
F51514.0
sbs(g8
S'finished.siri'
p742
tp743
g0
(g14
g2
Ntp744
Rp745
(dp746
g18
F0.5
sg19
I7495
sg20
g21
((dp747
I00
I7495
stp748
Rp749
sg25
I2
sg26
F7496.0
sbs(g8
S'procutout'
p750
tp751
g0
(g14
g2
Ntp752
Rp753
(dp754
g18
F0.5
sg19
I7495
sg20
g21
((dp755
I00
I7494
sI01
I1
stp756
Rp757
sg25
I2
sg26
F7496.0
sbs(g8
g460
tp758
g0
(g14
g2
Ntp759
Rp760
(dp761
g18
F0.5
sg19
I7495
sg20
g21
((dp762
I00
I7495
stp763
Rp764
sg25
I2
sg26
F7496.0
sbs(g8
S'that.other'
p765
tp766
g0
(g14
g2
Ntp767
Rp768
(dp769
g18
F0.5
sg19
I7495
sg20
g21
((dp770
I00
I7494
sI01
I1
stp771
Rp772
sg25
I2
sg26
F7496.0
sbs(g9
S'effective.disclosure'
p773
tp774
g0
(g14
g2
Ntp775
Rp776
(dp777
g18
F0.5
sg19
I51513
sg20
g21
((dp778
I00
I51513
stp779
Rp780
sg25
I1
sg26
F51513.5
sbs(g8
S'inanimate'
p781
tp782
g0
(g14
g2
Ntp783
Rp784
(dp785
g18
F0.5
sg19
I7495
sg20
g21
((dp786
I00
I7495
stp787
Rp788
sg25
I1
sg26
F7495.5
sbs(g9
g781
tp789
g0
(g14
g2
Ntp790
Rp791
(dp792
g18
F0.5
sg19
I51513
sg20
g21
((dp793
I00
I51513
stp794
Rp795
sg25
I1
sg26
F51513.5
sbs(g8
S'sutain'
p796
tp797
g0
(g14
g2
Ntp798
Rp799
(dp800
g18
F0.5
sg19
I7495
sg20
g21
((dp801
I00
I7495
stp802
Rp803
sg25
I2
sg26
F7496.0
sbs(g9
S'headset/headphone/mic'
p804
tp805
g0
(g14
g2
Ntp806
Rp807
(dp808
g18
F0.5
sg19
I51513
sg20
g21
((dp809
I00
I51512
sI01
I1
stp810
Rp811
sg25
I2
sg26
F51514.0
sbs(g8
g12
tp812
g0
(g14
g2
Ntp813
Rp814
(dp815
g18
F0.5
sg19
I7495
sg20
g21
((dp816
I00
I7495
stp817
Rp818
sg25
I2
sg26
F7496.0
sbs(g9
S'over-sized'
p819
tp820
g0
(g14
g2
Ntp821
Rp822
(dp823
g18
F0.5
sg19
I51513
sg20
g21
((dp824
I00
I51508
sI01
I5
stp825
Rp826
sg25
I2
sg26
F51514.0
sbs(g9
S'lifesaver.rapidly'
p827
tp828
g0
(g14
g2
Ntp829
Rp830
(dp831
g18
F0.5
sg19
I51513
sg20
g21
((dp832
I00
I51512
sI01
I1
stp833
Rp834
sg25
I2
sg26
F51514.0
sbs(g9
S'mailings'
p835
tp836
g0
(g14
g2
Ntp837
Rp838
(dp839
g18
F0.5
sg19
I51513
sg20
g21
((dp840
I00
I51512
sI01
I1
stp841
Rp842
sg25
I2
sg26
F51514.0
sbs(g9
S"'automatic"
p843
tp844
g0
(g14
g2
Ntp845
Rp846
(dp847
g18
F0.5
sg19
I51513
sg20
g21
((dp848
I00
I51512
sI01
I1
stp849
Rp850
sg25
I2
sg26
F51514.0
sbs(g9
S'refund.tells'
p851
tp852
g0
(g14
g2
Ntp853
Rp854
(dp855
g18
F0.5
sg19
I51513
sg20
g21
((dp856
I00
I51513
stp857
Rp858
sg25
I2
sg26
F51514.0
sbs(g8
S'everything.4'
p859
tp860
g0
(g14
g2
Ntp861
Rp862
(dp863
g18
F0.5
sg19
I7495
sg20
g21
((dp864
I00
I7495
stp865
Rp866
sg25
I2
sg26
F7496.0
sbs(g9
g452
tp867
g0
(g14
g2
Ntp868
Rp869
(dp870
g18
F0.5
sg19
I51513
sg20
g21
((dp871
I00
I51512
sI01
I1
stp872
Rp873
sg25
I2
sg26
F51514.0
sbs(g8
S'nicely.you'
p874
tp875
g0
(g14
g2
Ntp876
Rp877
(dp878
g18
F0.5
sg19
I7495
sg20
g21
((dp879
I00
I7495
stp880
Rp881
sg25
I2
sg26
F7496.0
sbs(g9
g874
tp882
g0
(g14
g2
Ntp883
Rp884
(dp885
g18
F0.5
sg19
I51513
sg20
g21
((dp886
I00
I51512
sI01
I1
stp887
Rp888
sg25
I2
sg26
F51514.0
sbs(g9
S'band.i'
p889
tp890
g0
(g14
g2
Ntp891
Rp892
(dp893
g18
F0.5
sg19
I51513
sg20
g21
((dp894
I00
I51512
sI01
I1
stp895
Rp896
sg25
I2
sg26
F51514.0
sbs(g9
S'installation.one'
p897
tp898
g0
(g14
g2
Ntp899
Rp900
(dp901
g18
F0.5
sg19
I51513
sg20
g21
((dp902
I00
I51513
stp903
Rp904
sg25
I1
sg26
F51513.5
sbs(g9
S'multi-channel'
p905
tp906
g0
(g14
g2
Ntp907
Rp908
(dp909
g18
F0.5
sg19
I51513
sg20
g21
((dp910
I00
I51513
stp911
Rp912
sg25
I1
sg26
F51513.5
sbs(g8
S'charging.-at'
p913
tp914
g0
(g14
g2
Ntp915
Rp916
(dp917
g18
F0.5
sg19
I7495
sg20
g21
((dp918
I00
I7495
stp919
Rp920
sg25
I2
sg26
F7496.0
sbs(g8
g271
tp921
g0
(g14
g2
Ntp922
Rp923
(dp924
g18
F0.5
sg19
I7495
sg20
g21
((dp925
I00
I7495
stp926
Rp927
sg25
I2
sg26
F7496.0
sbs(g8
S'upgrademy'
p928
tp929
g0
(g14
g2
Ntp930
Rp931
(dp932
g18
F0.5
sg19
I7495
sg20
g21
((dp933
I00
I7495
stp934
Rp935
sg25
I2
sg26
F7496.0
sbs(g8
S'anycom'
p936
tp937
g0
(g14
g2
Ntp938
Rp939
(dp940
g18
F0.5
sg19
I7495
sg20
g21
((dp941
I00
I7495
stp942
Rp943
sg25
I1
sg26
F7495.5
sbs(g9
g584
tp944
g0
(g14
g2
Ntp945
Rp946
(dp947
g18
F0.5
sg19
I51513
sg20
g21
((dp948
I00
I51494
sI01
I19
stp949
Rp950
sg25
I2
sg26
F51514.0
sbs(g8
S'long.finally'
p951
tp952
g0
(g14
g2
Ntp953
Rp954
(dp955
g18
F0.5
sg19
I7495
sg20
g21
((dp956
I00
I7495
stp957
Rp958
sg25
I2
sg26
F7496.0
sbs(g9
S'mygear'
p959
tp960
g0
(g14
g2
Ntp961
Rp962
(dp963
g18
F0.5
sg19
I51513
sg20
g21
((dp964
I00
I51513
stp965
Rp966
sg25
I2
sg26
F51514.0
sbs(g8
g804
tp967
g0
(g14
g2
Ntp968
Rp969
(dp970
g18
F0.5
sg19
I7495
sg20
g21
((dp971
I00
I7495
stp972
Rp973
sg25
I2
sg26
F7496.0
sbs(g8
S'disengaging'
p974
tp975
g0
(g14
g2
Ntp976
Rp977
(dp978
g18
F0.5
sg19
I7495
sg20
g21
((dp979
I00
I7494
sI01
I1
stp980
Rp981
sg25
I2
sg26
F7496.0
sbs(g9
S'mind-bogglingly'
p982
tp983
g0
(g14
g2
Ntp984
Rp985
(dp986
g18
F0.5
sg19
I51513
sg20
g21
((dp987
I00
I51513
stp988
Rp989
sg25
I1
sg26
F51513.5
sbs(g9
S'wickedly'
p990
tp991
g0
(g14
g2
Ntp992
Rp993
(dp994
g18
F0.5
sg19
I51513
sg20
g21
((dp995
I00
I51512
sI01
I1
stp996
Rp997
sg25
I2
sg26
F51514.0
sbs(g8
S'w13.5'
p998
tp999
g0
(g14
g2
Ntp1000
Rp1001
(dp1002
g18
F0.5
sg19
I7495
sg20
g21
((dp1003
I00
I7494
sI01
I1
stp1004
Rp1005
sg25
I2
sg26
F7496.0
sbs(g9
g208
tp1006
g0
(g14
g2
Ntp1007
Rp1008
(dp1009
g18
F0.5
sg19
I51513
sg20
g21
((dp1010
I00
I51512
sI01
I1
stp1011
Rp1012
sg25
I2
sg26
F51514.0
sbs(g8
g616
tp1013
g0
(g14
g2
Ntp1014
Rp1015
(dp1016
g18
F0.5
sg19
I7495
sg20
g21
((dp1017
I00
I7494
sI01
I1
stp1018
Rp1019
sg25
I2
sg26
F7496.0
sbs(g8
S'fir'
p1020
tp1021
g0
(g14
g2
Ntp1022
Rp1023
(dp1024
g18
F0.5
sg19
I7495
sg20
g21
((dp1025
I00
I7493
sI01
I2
stp1026
Rp1027
sg25
I2
sg26
F7496.0
sbs(g9
S'howardforums'
p1028
tp1029
g0
(g14
g2
Ntp1030
Rp1031
(dp1032
g18
F0.5
sg19
I51513
sg20
g21
((dp1033
I00
I51511
sI01
I2
stp1034
Rp1035
sg25
I2
sg26
F51514.0
sbs(g9
S'size.overall'
p1036
tp1037
g0
(g14
g2
Ntp1038
Rp1039
(dp1040
g18
F0.5
sg19
I51513
sg20
g21
((dp1041
I00
I51510
sI01
I3
stp1042
Rp1043
sg25
I2
sg26
F51514.0
sbs(g8
S'screen.when'
p1044
tp1045
g0
(g14
g2
Ntp1046
Rp1047
(dp1048
g18
F0.5
sg19
I7495
sg20
g21
((dp1049
I00
I7495
stp1050
Rp1051
sg25
I2
sg26
F7496.0
sbs(g8
g98
tp1052
g0
(g14
g2
Ntp1053
Rp1054
(dp1055
g18
F0.5
sg19
I7495
sg20
g21
((dp1056
I00
I7495
stp1057
Rp1058
sg25
I2
sg26
F7496.0
sbs(g9
S'misplacing.it'
p1059
tp1060
g0
(g14
g2
Ntp1061
Rp1062
(dp1063
g18
F0.5
sg19
I51513
sg20
g21
((dp1064
I00
I51512
sI01
I1
stp1065
Rp1066
sg25
I2
sg26
F51514.0
sbs(g9
g51
tp1067
g0
(g14
g2
Ntp1068
Rp1069
(dp1070
g18
F0.5
sg19
I51513
sg20
g21
((dp1071
I00
I51512
sI01
I1
stp1072
Rp1073
sg25
I2
sg26
F51514.0
sbs(g8
g843
tp1074
g0
(g14
g2
Ntp1075
Rp1076
(dp1077
g18
F0.5
sg19
I7495
sg20
g21
((dp1078
I00
I7495
stp1079
Rp1080
sg25
I2
sg26
F7496.0
sbs(g9
S'pockes/bags'
p1081
tp1082
g0
(g14
g2
Ntp1083
Rp1084
(dp1085
g18
F0.5
sg19
I51513
sg20
g21
((dp1086
I00
I51513
stp1087
Rp1088
sg25
I1
sg26
F51513.5
sbs(g8
g694
tp1089
g0
(g14
g2
Ntp1090
Rp1091
(dp1092
g18
F0.5
sg19
I7495
sg20
g21
((dp1093
I00
I7495
stp1094
Rp1095
sg25
I2
sg26
F7496.0
sbs(g9
S'indoors-wireless'
p1096
tp1097
g0
(g14
g2
Ntp1098
Rp1099
(dp1100
g18
F0.5
sg19
I51513
sg20
g21
((dp1101
I00
I51512
sI01
I1
stp1102
Rp1103
sg25
I2
sg26
F51514.0
sbs(g9
S'adapter.now'
p1104
tp1105
g0
(g14
g2
Ntp1106
Rp1107
(dp1108
g18
F0.5
sg19
I51513
sg20
g21
((dp1109
I00
I51512
sI01
I1
stp1110
Rp1111
sg25
I2
sg26
F51514.0
sbs(g8
S'spotty'
p1112
tp1113
g0
(g14
g2
Ntp1114
Rp1115
(dp1116
g18
F0.5
sg19
I7495
sg20
g21
((dp1117
I00
I7488
sI01
I7
stp1118
Rp1119
sg25
I2
sg26
F7496.0
sbs(g9
S'day.has'
p1120
tp1121
g0
(g14
g2
Ntp1122
Rp1123
(dp1124
g18
F0.5
sg19
I51513
sg20
g21
((dp1125
I00
I51513
stp1126
Rp1127
sg25
I2
sg26
F51514.0
sbs(g8
S'snuggled'
p1128
tp1129
g0
(g14
g2
Ntp1130
Rp1131
(dp1132
g18
F0.5
sg19
I7495
sg20
g21
((dp1133
I00
I7495
stp1134
Rp1135
sg25
I2
sg26
F7496.0
sbs(g9
g1128
tp1136
g0
(g14
g2
Ntp1137
Rp1138
(dp1139
g18
F0.5
sg19
I51513
sg20
g21
((dp1140
I00
I51510
sI01
I3
stp1141
Rp1142
sg25
I2
sg26
F51514.0
sbs(g8
S'wrap-around-the-ear'
p1143
tp1144
g0
(g14
g2
Ntp1145
Rp1146
(dp1147
g18
F0.5
sg19
I7495
sg20
g21
((dp1148
I00
I7494
sI01
I1
stp1149
Rp1150
sg25
I2
sg26
F7496.0
sbs(g8
S'film.if'
p1151
tp1152
g0
(g14
g2
Ntp1153
Rp1154
(dp1155
g18
F0.5
sg19
I7495
sg20
g21
((dp1156
I00
I7495
stp1157
Rp1158
sg25
I2
sg26
F7496.0
sbs(g9
S'iden/nextel'
p1159
tp1160
g0
(g14
g2
Ntp1161
Rp1162
(dp1163
g18
F0.5
sg19
I51513
sg20
g21
((dp1164
I00
I51512
sI01
I1
stp1165
Rp1166
sg25
I2
sg26
F51514.0
sbs(g8
g1096
tp1167
g0
(g14
g2
Ntp1168
Rp1169
(dp1170
g18
F0.5
sg19
I7495
sg20
g21
((dp1171
I00
I7495
stp1172
Rp1173
sg25
I2
sg26
F7496.0
sbs(g9
g859
tp1174
g0
(g14
g2
Ntp1175
Rp1176
(dp1177
g18
F0.5
sg19
I51513
sg20
g21
((dp1178
I00
I51512
sI01
I1
stp1179
Rp1180
sg25
I2
sg26
F51514.0
sbs(g8
g239
tp1181
g0
(g14
g2
Ntp1182
Rp1183
(dp1184
g18
F0.5
sg19
I7495
sg20
g21
((dp1185
I00
I7495
stp1186
Rp1187
sg25
I1
sg26
F7495.5
sbs(g9
S'exelent'
p1188
tp1189
g0
(g14
g2
Ntp1190
Rp1191
(dp1192
g18
F0.5
sg19
I51513
sg20
g21
((dp1193
I00
I51512
sI01
I1
stp1194
Rp1195
sg25
I2
sg26
F51514.0
sbs(g9
S'everything..'
p1196
tp1197
g0
(g14
g2
Ntp1198
Rp1199
(dp1200
g18
F0.5
sg19
I51513
sg20
g21
((dp1201
I00
I51513
stp1202
Rp1203
sg25
I2
sg26
F51514.0
sbs(g8
g468
tp1204
g0
(g14
g2
Ntp1205
Rp1206
(dp1207
g18
F0.5
sg19
I7495
sg20
g21
((dp1208
I00
I7495
stp1209
Rp1210
sg25
I2
sg26
F7496.0
sbs(g8
g106
tp1211
g0
(g14
g2
Ntp1212
Rp1213
(dp1214
g18
F0.5
sg19
I7495
sg20
g21
((dp1215
I00
I7489
sI01
I6
stp1216
Rp1217
sg25
I2
sg26
F7496.0
sbs(g9
S'projection'
p1218
tp1219
g0
(g14
g2
Ntp1220
Rp1221
(dp1222
g18
F0.5
sg19
I51513
sg20
g21
((dp1223
I00
I51508
sI01
I5
stp1224
Rp1225
sg25
I2
sg26
F51514.0
sbs(g9
S'refunding'
p1226
tp1227
g0
(g14
g2
Ntp1228
Rp1229
(dp1230
g18
F0.5
sg19
I51513
sg20
g21
((dp1231
I00
I51512
sI01
I1
stp1232
Rp1233
sg25
I2
sg26
F51514.0
sbs(g8
g75
tp1234
g0
(g14
g2
Ntp1235
Rp1236
(dp1237
g18
F0.5
sg19
I7495
sg20
g21
((dp1238
I00
I7297
sI01
I198
stp1239
Rp1240
sg25
I2
sg26
F7496.0
sbs(g8
S'head.these'
p1241
tp1242
g0
(g14
g2
Ntp1243
Rp1244
(dp1245
g18
F0.5
sg19
I7495
sg20
g21
((dp1246
I00
I7495
stp1247
Rp1248
sg25
I2
sg26
F7496.0
sbs(g8
S'dna'
p1249
tp1250
g0
(g14
g2
Ntp1251
Rp1252
(dp1253
g18
F0.5
sg19
I7495
sg20
g21
((dp1254
I00
I7491
sI01
I4
stp1255
Rp1256
sg25
I2
sg26
F7496.0
sbs(g8
g982
tp1257
g0
(g14
g2
Ntp1258
Rp1259
(dp1260
g18
F0.5
sg19
I7495
sg20
g21
((dp1261
I00
I7495
stp1262
Rp1263
sg25
I1
sg26
F7495.5
sbs(g8
S'problems.cell'
p1264
tp1265
g0
(g14
g2
Ntp1266
Rp1267
(dp1268
g18
F0.5
sg19
I7495
sg20
g21
((dp1269
I00
I7495
stp1270
Rp1271
sg25
I2
sg26
F7496.0
sbs(g9
g936
tp1272
g0
(g14
g2
Ntp1273
Rp1274
(dp1275
g18
F0.5
sg19
I51513
sg20
g21
((dp1276
I00
I51513
stp1277
Rp1278
sg25
I1
sg26
F51513.5
sbs(g9
S'calidad'
p1279
tp1280
g0
(g14
g2
Ntp1281
Rp1282
(dp1283
g18
F0.5
sg19
I51513
sg20
g21
((dp1284
I00
I51509
sI01
I4
stp1285
Rp1286
sg25
I2
sg26
F51514.0
sbs(g8
g647
tp1287
g0
(g14
g2
Ntp1288
Rp1289
(dp1290
g18
F0.5
sg19
I7495
sg20
g21
((dp1291
I00
I7494
sI01
I1
stp1292
Rp1293
sg25
I2
sg26
F7496.0
sbs(g8
g1218
tp1294
g0
(g14
g2
Ntp1295
Rp1296
(dp1297
g18
F0.5
sg19
I7495
sg20
g21
((dp1298
I00
I7495
stp1299
Rp1300
sg25
I2
sg26
F7496.0
sbs(g9
g295
tp1301
g0
(g14
g2
Ntp1302
Rp1303
(dp1304
g18
F0.5
sg19
I51513
sg20
g21
((dp1305
I00
I51512
sI01
I1
stp1306
Rp1307
sg25
I2
sg26
F51514.0
sbs(g9
S'copious'
p1308
tp1309
g0
(g14
g2
Ntp1310
Rp1311
(dp1312
g18
F0.5
sg19
I51513
sg20
g21
((dp1313
I00
I51512
sI01
I1
stp1314
Rp1315
sg25
I2
sg26
F51514.0
sbs(g9
g382
tp1316
g0
(g14
g2
Ntp1317
Rp1318
(dp1319
g18
F0.5
sg19
I51513
sg20
g21
((dp1320
I00
I51512
sI01
I1
stp1321
Rp1322
sg25
I2
sg26
F51514.0
sbs(g9
g1249
tp1323
g0
(g14
g2
Ntp1324
Rp1325
(dp1326
g18
F0.5
sg19
I51513
sg20
g21
((dp1327
I00
I51467
sI01
I46
stp1328
Rp1329
sg25
I2
sg26
F51514.0
sbs(g8
g247
tp1330
g0
(g14
g2
Ntp1331
Rp1332
(dp1333
g18
F0.5
sg19
I7495
sg20
g21
((dp1334
I00
I7495
stp1335
Rp1336
sg25
I2
sg26
F7496.0
sbs(g9
S'pints'
p1337
tp1338
g0
(g14
g2
Ntp1339
Rp1340
(dp1341
g18
F0.5
sg19
I51513
sg20
g21
((dp1342
I00
I51512
sI01
I1
stp1343
Rp1344
sg25
I2
sg26
F51514.0
sbs(g8
S'dnt'
p1345
tp1346
g0
(g14
g2
Ntp1347
Rp1348
(dp1349
g18
F0.5
sg19
I7495
sg20
g21
((dp1350
I00
I7495
stp1351
Rp1352
sg25
I2
sg26
F7496.0
sbs(g9
g998
tp1353
g0
(g14
g2
Ntp1354
Rp1355
(dp1356
g18
F0.5
sg19
I51513
sg20
g21
((dp1357
I00
I51513
stp1358
Rp1359
sg25
I2
sg26
F51514.0
sbs(g8
S'..boo'
p1360
tp1361
g0
(g14
g2
Ntp1362
Rp1363
(dp1364
g18
F0.5
sg19
I7495
sg20
g21
((dp1365
I00
I7494
sI01
I1
stp1366
Rp1367
sg25
I2
sg26
F7496.0
sbs(g8
g639
tp1368
g0
(g14
g2
Ntp1369
Rp1370
(dp1371
g18
F0.5
sg19
I7495
sg20
g21
((dp1372
I00
I7495
stp1373
Rp1374
sg25
I2
sg26
F7496.0
sbs(g9
S'beginning.in'
p1375
tp1376
g0
(g14
g2
Ntp1377
Rp1378
(dp1379
g18
F0.5
sg19
I51513
sg20
g21
((dp1380
I00
I51511
sI01
I2
stp1381
Rp1382
sg25
I2
sg26
F51514.0
sbs(g8
S'earbud.called'
p1383
tp1384
g0
(g14
g2
Ntp1385
Rp1386
(dp1387
g18
F0.5
sg19
I7495
sg20
g21
((dp1388
I00
I7494
sI01
I1
stp1389
Rp1390
sg25
I2
sg26
F7496.0
sbs(g8
S'interfeance'
p1391
tp1392
g0
(g14
g2
Ntp1393
Rp1394
(dp1395
g18
F0.5
sg19
I7495
sg20
g21
((dp1396
I00
I7495
stp1397
Rp1398
sg25
I2
sg26
F7496.0
sbs(g9
S'boogar'
p1399
tp1400
g0
(g14
g2
Ntp1401
Rp1402
(dp1403
g18
F0.5
sg19
I51513
sg20
g21
((dp1404
I00
I51513
stp1405
Rp1406
sg25
I1
sg26
F51513.5
sbs(g9
g1391
tp1407
g0
(g14
g2
Ntp1408
Rp1409
(dp1410
g18
F0.5
sg19
I51513
sg20
g21
((dp1411
I00
I51512
sI01
I1
stp1412
Rp1413
sg25
I2
sg26
F51514.0
sbs(g9
g796
tp1414
g0
(g14
g2
Ntp1415
Rp1416
(dp1417
g18
F0.5
sg19
I51513
sg20
g21
((dp1418
I00
I51512
sI01
I1
stp1419
Rp1420
sg25
I2
sg26
F51514.0
sbs(g9
S'shape.that'
p1421
tp1422
g0
(g14
g2
Ntp1423
Rp1424
(dp1425
g18
F0.5
sg19
I51513
sg20
g21
((dp1426
I00
I51513
stp1427
Rp1428
sg25
I1
sg26
F51513.5
sbs(g8
g959
tp1429
g0
(g14
g2
Ntp1430
Rp1431
(dp1432
g18
F0.5
sg19
I7495
sg20
g21
((dp1433
I00
I7494
sI01
I1
stp1434
Rp1435
sg25
I2
sg26
F7496.0
sbs(g8
g335
tp1436
g0
(g14
g2
Ntp1437
Rp1438
(dp1439
g18
F0.5
sg19
I7495
sg20
g21
((dp1440
I00
I7495
stp1441
Rp1442
sg25
I2
sg26
F7496.0
sbs(g8
S'phone\\tablet'
p1443
tp1444
g0
(g14
g2
Ntp1445
Rp1446
(dp1447
g18
F0.5
sg19
I7495
sg20
g21
((dp1448
I00
I7495
stp1449
Rp1450
sg25
I2
sg26
F7496.0
sbs(g8
g1337
tp1451
g0
(g14
g2
Ntp1452
Rp1453
(dp1454
g18
F0.5
sg19
I7495
sg20
g21
((dp1455
I00
I7495
stp1456
Rp1457
sg25
I2
sg26
F7496.0
sbs(g9
g742
tp1458
g0
(g14
g2
Ntp1459
Rp1460
(dp1461
g18
F0.5
sg19
I51513
sg20
g21
((dp1462
I00
I51512
sI01
I1
stp1463
Rp1464
sg25
I2
sg26
F51514.0
sbs(g8
g726
tp1465
g0
(g14
g2
Ntp1466
Rp1467
(dp1468
g18
F0.5
sg19
I7495
sg20
g21
((dp1469
I00
I7494
sI01
I1
stp1470
Rp1471
sg25
I2
sg26
F7496.0
sbs(g9
S'multi-point'
p1472
tp1473
g0
(g14
g2
Ntp1474
Rp1475
(dp1476
g18
F0.5
sg19
I51513
sg20
g21
((dp1477
I00
I51513
stp1478
Rp1479
sg25
I2
sg26
F51514.0
sbs(g8
g287
tp1480
g0
(g14
g2
Ntp1481
Rp1482
(dp1483
g18
F0.5
sg19
I7495
sg20
g21
((dp1484
I00
I7495
stp1485
Rp1486
sg25
I2
sg26
F7496.0
sbs(g8
S'download.sound'
p1487
tp1488
g0
(g14
g2
Ntp1489
Rp1490
(dp1491
g18
F0.5
sg19
I7495
sg20
g21
((dp1492
I00
I7495
stp1493
Rp1494
sg25
I2
sg26
F7496.0
sbs(g9
S'backings'
p1495
tp1496
g0
(g14
g2
Ntp1497
Rp1498
(dp1499
g18
F0.5
sg19
I51513
sg20
g21
((dp1500
I00
I51509
sI01
I4
stp1501
Rp1502
sg25
I2
sg26
F51514.0
sbs(g9
S'distortions'
p1503
tp1504
g0
(g14
g2
Ntp1505
Rp1506
(dp1507
g18
F0.5
sg19
I51513
sg20
g21
((dp1508
I00
I51503
sI01
I10
stp1509
Rp1510
sg25
I2
sg26
F51514.0
sbs(g8
g1159
tp1511
g0
(g14
g2
Ntp1512
Rp1513
(dp1514
g18
F0.5
sg19
I7495
sg20
g21
((dp1515
I00
I7495
stp1516
Rp1517
sg25
I2
sg26
F7496.0
sbs(g8
g1196
tp1518
g0
(g14
g2
Ntp1519
Rp1520
(dp1521
g18
F0.5
sg19
I7495
sg20
g21
((dp1522
I00
I7494
sI01
I1
stp1523
Rp1524
sg25
I2
sg26
F7496.0
sbs(g8
g428
tp1525
g0
(g14
g2
Ntp1526
Rp1527
(dp1528
g18
F0.5
sg19
I7495
sg20
g21
((dp1529
I00
I7494
sI01
I1
stp1530
Rp1531
sg25
I2
sg26
F7496.0
sbs(g9
g67
tp1532
g0
(g14
g2
Ntp1533
Rp1534
(dp1535
g18
F0.5
sg19
I51513
sg20
g21
((dp1536
I00
I51512
sI01
I1
stp1537
Rp1538
sg25
I2
sg26
F51514.0
sbs(g9
S'woody'
p1539
tp1540
g0
(g14
g2
Ntp1541
Rp1542
(dp1543
g18
F0.5
sg19
I51513
sg20
g21
((dp1544
I00
I51512
sI01
I1
stp1545
Rp1546
sg25
I2
sg26
F51514.0
sbs(g8
S'hard.feels'
p1547
tp1548
g0
(g14
g2
Ntp1549
Rp1550
(dp1551
g18
F0.5
sg19
I7495
sg20
g21
((dp1552
I00
I7495
stp1553
Rp1554
sg25
I2
sg26
F7496.0
sbs(g8
g146
tp1555
g0
(g14
g2
Ntp1556
Rp1557
(dp1558
g18
F0.5
sg19
I7495
sg20
g21
((dp1559
I00
I7495
stp1560
Rp1561
sg25
I1
sg26
F7495.5
sbs(g8
S'operationcons-'
p1562
tp1563
g0
(g14
g2
Ntp1564
Rp1565
(dp1566
g18
F0.5
sg19
I7495
sg20
g21
((dp1567
I00
I7495
stp1568
Rp1569
sg25
I1
sg26
F7495.5
sbs(g8
S'canmatch'
p1570
tp1571
g0
(g14
g2
Ntp1572
Rp1573
(dp1574
g18
F0.5
sg19
I7495
sg20
g21
((dp1575
I00
I7495
stp1576
Rp1577
sg25
I2
sg26
F7496.0
sbs(g8
g1188
tp1578
g0
(g14
g2
Ntp1579
Rp1580
(dp1581
g18
F0.5
sg19
I7495
sg20
g21
((dp1582
I00
I7495
stp1583
Rp1584
sg25
I2
sg26
F7496.0
sbs(g8
g122
tp1585
g0
(g14
g2
Ntp1586
Rp1587
(dp1588
g18
F0.5
sg19
I7495
sg20
g21
((dp1589
I00
I7492
sI01
I3
stp1590
Rp1591
sg25
I2
sg26
F7496.0
sbs(g9
S'slip-in-your-pocket'
p1592
tp1593
g0
(g14
g2
Ntp1594
Rp1595
(dp1596
g18
F0.5
sg19
I51513
sg20
g21
((dp1597
I00
I51513
stp1598
Rp1599
sg25
I2
sg26
F51514.0
sbs(g8
g592
tp1600
g0
(g14
g2
Ntp1601
Rp1602
(dp1603
g18
F0.5
sg19
I7495
sg20
g21
((dp1604
I00
I6484
sI01
I1011
stp1605
Rp1606
sg25
I2
sg26
F7496.0
sbs(g8
g905
tp1607
g0
(g14
g2
Ntp1608
Rp1609
(dp1610
g18
F0.5
sg19
I7495
sg20
g21
((dp1611
I00
I7495
stp1612
Rp1613
sg25
I1
sg26
F7495.5
sbs(g9
g90
tp1614
g0
(g14
g2
Ntp1615
Rp1616
(dp1617
g18
F0.5
sg19
I51513
sg20
g21
((dp1618
I00
I51509
sI01
I4
stp1619
Rp1620
sg25
I2
sg26
F51514.0
sbs(g9
S'cameraphone'
p1621
tp1622
g0
(g14
g2
Ntp1623
Rp1624
(dp1625
g18
F0.5
sg19
I51513
sg20
g21
((dp1626
I00
I51512
sI01
I1
stp1627
Rp1628
sg25
I2
sg26
F51514.0
sbs(g8
g1120
tp1629
g0
(g14
g2
Ntp1630
Rp1631
(dp1632
g18
F0.5
sg19
I7495
sg20
g21
((dp1633
I00
I7494
sI01
I1
stp1634
Rp1635
sg25
I2
sg26
F7496.0
sbs(g8
g530
tp1636
g0
(g14
g2
Ntp1637
Rp1638
(dp1639
g18
F0.5
sg19
I7495
sg20
g21
((dp1640
I00
I7495
stp1641
Rp1642
sg25
I2
sg26
F7496.0
sbs(g9
S'else.note'
p1643
tp1644
g0
(g14
g2
Ntp1645
Rp1646
(dp1647
g18
F0.5
sg19
I51513
sg20
g21
((dp1648
I00
I51512
sI01
I1
stp1649
Rp1650
sg25
I2
sg26
F51514.0
sbs(g8
g1592
tp1651
g0
(g14
g2
Ntp1652
Rp1653
(dp1654
g18
F0.5
sg19
I7495
sg20
g21
((dp1655
I00
I7494
sI01
I1
stp1656
Rp1657
sg25
I2
sg26
F7496.0
sbs(g9
S'co-passenger'
p1658
tp1659
g0
(g14
g2
Ntp1660
Rp1661
(dp1662
g18
F0.5
sg19
I51513
sg20
g21
((dp1663
I00
I51512
sI01
I1
stp1664
Rp1665
sg25
I2
sg26
F51514.0
sbs(g8
g1375
tp1666
g0
(g14
g2
Ntp1667
Rp1668
(dp1669
g18
F0.5
sg19
I7495
sg20
g21
((dp1670
I00
I7495
stp1671
Rp1672
sg25
I2
sg26
F7496.0
sbs(g8
S'cords.charges'
p1673
tp1674
g0
(g14
g2
Ntp1675
Rp1676
(dp1677
g18
F0.5
sg19
I7495
sg20
g21
((dp1678
I00
I7495
stp1679
Rp1680
sg25
I2
sg26
F7496.0
sbs(g9
S'everything.2'
p1681
tp1682
g0
(g14
g2
Ntp1683
Rp1684
(dp1685
g18
F0.5
sg19
I51513
sg20
g21
((dp1686
I00
I51513
stp1687
Rp1688
sg25
I1
sg26
F51513.5
sbs(g9
S'hd-x3'
p1689
tp1690
g0
(g14
g2
Ntp1691
Rp1692
(dp1693
g18
F0.5
sg19
I51513
sg20
g21
((dp1694
I00
I51512
sI01
I1
stp1695
Rp1696
sg25
I2
sg26
F51514.0
sbs(g8
g679
tp1697
g0
(g14
g2
Ntp1698
Rp1699
(dp1700
g18
F0.5
sg19
I7495
sg20
g21
((dp1701
I00
I7495
stp1702
Rp1703
sg25
I1
sg26
F7495.5
sbs(g8
g702
tp1704
g0
(g14
g2
Ntp1705
Rp1706
(dp1707
g18
F0.5
sg19
I7495
sg20
g21
((dp1708
I00
I7495
stp1709
Rp1710
sg25
I2
sg26
F7496.0
sbs(g9
S'medida'
p1711
tp1712
g0
(g14
g2
Ntp1713
Rp1714
(dp1715
g18
F0.5
sg19
I51513
sg20
g21
((dp1716
I00
I51513
stp1717
Rp1718
sg25
I1
sg26
F51513.5
sbs(g9
g231
tp1719
g0
(g14
g2
Ntp1720
Rp1721
(dp1722
g18
F0.5
sg19
I51513
sg20
g21
((dp1723
I00
I51510
sI01
I3
stp1724
Rp1725
sg25
I2
sg26
F51514.0
sbs(g9
S'welcomed'
p1726
tp1727
g0
(g14
g2
Ntp1728
Rp1729
(dp1730
g18
F0.5
sg19
I51513
sg20
g21
((dp1731
I00
I51497
sI01
I16
stp1732
Rp1733
sg25
I2
sg26
F51514.0
sbs(g9
g913
tp1734
g0
(g14
g2
Ntp1735
Rp1736
(dp1737
g18
F0.5
sg19
I51513
sg20
g21
((dp1738
I00
I51512
sI01
I1
stp1739
Rp1740
sg25
I2
sg26
F51514.0
sbs(g9
S'thisetronic'
p1741
tp1742
g0
(g14
g2
Ntp1743
Rp1744
(dp1745
g18
F0.5
sg19
I51513
sg20
g21
((dp1746
I00
I51513
stp1747
Rp1748
sg25
I1
sg26
F51513.5
sbs(g9
g327
tp1749
g0
(g14
g2
Ntp1750
Rp1751
(dp1752
g18
F0.5
sg19
I51513
sg20
g21
((dp1753
I00
I51512
sI01
I1
stp1754
Rp1755
sg25
I2
sg26
F51514.0
sbs(g9
g1360
tp1756
g0
(g14
g2
Ntp1757
Rp1758
(dp1759
g18
F0.5
sg19
I51513
sg20
g21
((dp1760
I00
I51513
stp1761
Rp1762
sg25
I2
sg26
F51514.0
sbs(g9
g750
tp1763
g0
(g14
g2
Ntp1764
Rp1765
(dp1766
g18
F0.5
sg19
I51513
sg20
g21
((dp1767
I00
I51513
stp1768
Rp1769
sg25
I2
sg26
F51514.0
sbs(g8
S'used/returned'
p1770
tp1771
g0
(g14
g2
Ntp1772
Rp1773
(dp1774
g18
F0.5
sg19
I7495
sg20
g21
((dp1775
I00
I7494
sI01
I1
stp1776
Rp1777
sg25
I2
sg26
F7496.0
sbs(g9
S'water-skiing'
p1778
tp1779
g0
(g14
g2
Ntp1780
Rp1781
(dp1782
g18
F0.5
sg19
I51513
sg20
g21
((dp1783
I00
I51512
sI01
I1
stp1784
Rp1785
sg25
I2
sg26
F51514.0
sbs(g8
S'hd.they'
p1786
tp1787
g0
(g14
g2
Ntp1788
Rp1789
(dp1790
g18
F0.5
sg19
I7495
sg20
g21
((dp1791
I00
I7495
stp1792
Rp1793
sg25
I1
sg26
F7495.5
sbs(g9
S'affiliated'
p1794
tp1795
g0
(g14
g2
Ntp1796
Rp1797
(dp1798
g18
F0.5
sg19
I51513
sg20
g21
((dp1799
I00
I51509
sI01
I4
stp1800
Rp1801
sg25
I2
sg26
F51514.0
sbs(g8
g710
tp1802
g0
(g14
g2
Ntp1803
Rp1804
(dp1805
g18
F0.5
sg19
I7495
sg20
g21
((dp1806
I00
I7495
stp1807
Rp1808
sg25
I2
sg26
F7496.0
sbs(g9
g569
tp1809
g0
(g14
g2
Ntp1810
Rp1811
(dp1812
g18
F0.5
sg19
I51513
sg20
g21
((dp1813
I00
I51512
sI01
I1
stp1814
Rp1815
sg25
I2
sg26
F51514.0
sbs(g9
S'wang'
p1816
tp1817
g0
(g14
g2
Ntp1818
Rp1819
(dp1820
g18
F0.5
sg19
I51513
sg20
g21
((dp1821
I00
I51512
sI01
I1
stp1822
Rp1823
sg25
I2
sg26
F51514.0
sbs(g9
S'add/count'
p1824
tp1825
g0
(g14
g2
Ntp1826
Rp1827
(dp1828
g18
F0.5
sg19
I51513
sg20
g21
((dp1829
I00
I51512
sI01
I1
stp1830
Rp1831
sg25
I2
sg26
F51514.0
sbs(g8
g1503
tp1832
g0
(g14
g2
Ntp1833
Rp1834
(dp1835
g18
F0.5
sg19
I7495
sg20
g21
((dp1836
I00
I7495
stp1837
Rp1838
sg25
I2
sg26
F7496.0
sbs(g9
S'mode.the'
p1839
tp1840
g0
(g14
g2
Ntp1841
Rp1842
(dp1843
g18
F0.5
sg19
I51513
sg20
g21
((dp1844
I00
I51504
sI01
I9
stp1845
Rp1846
sg25
I2
sg26
F51514.0
sbs(g9
S'battery.call'
p1847
tp1848
g0
(g14
g2
Ntp1849
Rp1850
(dp1851
g18
F0.5
sg19
I51513
sg20
g21
((dp1852
I00
I51512
sI01
I1
stp1853
Rp1854
sg25
I2
sg26
F51514.0
sbs(g8
g561
tp1855
g0
(g14
g2
Ntp1856
Rp1857
(dp1858
g18
F0.5
sg19
I7495
sg20
g21
((dp1859
I00
I7493
sI01
I2
stp1860
Rp1861
sg25
I2
sg26
F7496.0
sbs(g9
S'stero'
p1862
tp1863
g0
(g14
g2
Ntp1864
Rp1865
(dp1866
g18
F0.5
sg19
I51513
sg20
g21
((dp1867
I00
I51511
sI01
I2
stp1868
Rp1869
sg25
I2
sg26
F51514.0
sbs(g9
g1143
tp1870
g0
(g14
g2
Ntp1871
Rp1872
(dp1873
g18
F0.5
sg19
I51513
sg20
g21
((dp1874
I00
I51513
stp1875
Rp1876
sg25
I2
sg26
F51514.0
sbs(g8
S'distortion.'
p1877
tp1878
g0
(g14
g2
Ntp1879
Rp1880
(dp1881
g18
F0.5
sg19
I7495
sg20
g21
((dp1882
I00
I7495
stp1883
Rp1884
sg25
I1
sg26
F7495.5
sbs(g8
S'help.great'
p1885
tp1886
g0
(g14
g2
Ntp1887
Rp1888
(dp1889
g18
F0.5
sg19
I7495
sg20
g21
((dp1890
I00
I7495
stp1891
Rp1892
sg25
I2
sg26
F7496.0
sbs(g8
S'localized'
p1893
tp1894
g0
(g14
g2
Ntp1895
Rp1896
(dp1897
g18
F0.5
sg19
I7495
sg20
g21
((dp1898
I00
I7495
stp1899
Rp1900
sg25
I2
sg26
F7496.0
sbs(g9
g1893
tp1901
g0
(g14
g2
Ntp1902
Rp1903
(dp1904
g18
F0.5
sg19
I51513
sg20
g21
((dp1905
I00
I51512
sI01
I1
stp1906
Rp1907
sg25
I2
sg26
F51514.0
sbs(g8
g1816
tp1908
g0
(g14
g2
Ntp1909
Rp1910
(dp1911
g18
F0.5
sg19
I7495
sg20
g21
((dp1912
I00
I7495
stp1913
Rp1914
sg25
I2
sg26
F7496.0
sbs(g9
S'replaced'
p1915
tp1916
g0
(g14
g2
Ntp1917
Rp1918
(dp1919
g18
F0.5
sg19
I51513
sg20
g21
((dp1920
I00
I51052
sI01
I461
stp1921
Rp1922
sg25
I2
sg26
F51514.0
sbs(g9
g1020
tp1923
g0
(g14
g2
Ntp1924
Rp1925
(dp1926
g18
F0.5
sg19
I51513
sg20
g21
((dp1927
I00
I51493
sI01
I20
stp1928
Rp1929
sg25
I2
sg26
F51514.0
sbs(g9
S'e5'
p1930
tp1931
g0
(g14
g2
Ntp1932
Rp1933
(dp1934
g18
F0.5
sg19
I51513
sg20
g21
((dp1935
I00
I51510
sI01
I3
stp1936
Rp1937
sg25
I2
sg26
F51514.0
sbs(g9
S'blubuds'
p1938
tp1939
g0
(g14
g2
Ntp1940
Rp1941
(dp1942
g18
F0.5
sg19
I51513
sg20
g21
((dp1943
I00
I51513
stp1944
Rp1945
sg25
I1
sg26
F51513.5
sbs(g8
g1862
tp1946
g0
(g14
g2
Ntp1947
Rp1948
(dp1949
g18
F0.5
sg19
I7495
sg20
g21
((dp1950
I00
I7495
stp1951
Rp1952
sg25
I2
sg26
F7496.0
sbs(g8
g835
tp1953
g0
(g14
g2
Ntp1954
Rp1955
(dp1956
g18
F0.5
sg19
I7495
sg20
g21
((dp1957
I00
I7495
stp1958
Rp1959
sg25
I2
sg26
F7496.0
sbs(g9
S'watts**there'
p1960
tp1961
g0
(g14
g2
Ntp1962
Rp1963
(dp1964
g18
F0.5
sg19
I51513
sg20
g21
((dp1965
I00
I51512
sI01
I1
stp1966
Rp1967
sg25
I2
sg26
F51514.0
sbs(g8
g819
tp1968
g0
(g14
g2
Ntp1969
Rp1970
(dp1971
g18
F0.5
sg19
I7495
sg20
g21
((dp1972
I00
I7492
sI01
I3
stp1973
Rp1974
sg25
I2
sg26
F7496.0
sbs(g9
S'adapter.not'
p1975
tp1976
g0
(g14
g2
Ntp1977
Rp1978
(dp1979
g18
F0.5
sg19
I51513
sg20
g21
((dp1980
I00
I51512
sI01
I1
stp1981
Rp1982
sg25
I2
sg26
F51514.0
sbs(g9
S'youconstantly'
p1983
tp1984
g0
(g14
g2
Ntp1985
Rp1986
(dp1987
g18
F0.5
sg19
I51513
sg20
g21
((dp1988
I00
I51512
sI01
I1
stp1989
Rp1990
sg25
I2
sg26
F51514.0
sbs(g8
g1621
tp1991
g0
(g14
g2
Ntp1992
Rp1993
(dp1994
g18
F0.5
sg19
I7495
sg20
g21
((dp1995
I00
I7495
stp1996
Rp1997
sg25
I2
sg26
F7496.0
sbs(g8
g130
tp1998
g0
(g14
g2
Ntp1999
Rp2000
(dp2001
g18
F0.5
sg19
I7495
sg20
g21
((dp2002
I00
I7462
sI01
I33
stp2003
Rp2004
sg25
I2
sg26
F7496.0
sbs(g9
g545
tp2005
g0
(g14
g2
Ntp2006
Rp2007
(dp2008
g18
F0.5
sg19
I51513
sg20
g21
((dp2009
I00
I51512
sI01
I1
stp2010
Rp2011
sg25
I2
sg26
F51514.0
sbs(g9
S'contact.this'
p2012
tp2013
g0
(g14
g2
Ntp2014
Rp2015
(dp2016
g18
F0.5
sg19
I51513
sg20
g21
((dp2017
I00
I51513
stp2018
Rp2019
sg25
I1
sg26
F51513.5
sbs(g9
g1264
tp2020
g0
(g14
g2
Ntp2021
Rp2022
(dp2023
g18
F0.5
sg19
I51513
sg20
g21
((dp2024
I00
I51512
sI01
I1
stp2025
Rp2026
sg25
I2
sg26
F51514.0
sbs(g9
g279
tp2027
g0
(g14
g2
Ntp2028
Rp2029
(dp2030
g18
F0.5
sg19
I51513
sg20
g21
((dp2031
I00
I51512
sI01
I1
stp2032
Rp2033
sg25
I2
sg26
F51514.0
sbs(g8
g1658
tp2034
g0
(g14
g2
Ntp2035
Rp2036
(dp2037
g18
F0.5
sg19
I7495
sg20
g21
((dp2038
I00
I7495
stp2039
Rp2040
sg25
I2
sg26
F7496.0
sbs(g9
g1151
tp2041
g0
(g14
g2
Ntp2042
Rp2043
(dp2044
g18
F0.5
sg19
I51513
sg20
g21
((dp2045
I00
I51512
sI01
I1
stp2046
Rp2047
sg25
I2
sg26
F51514.0
sbs(g9
g655
tp2048
g0
(g14
g2
Ntp2049
Rp2050
(dp2051
g18
F0.5
sg19
I51513
sg20
g21
((dp2052
I00
I51509
sI01
I4
stp2053
Rp2054
sg25
I2
sg26
F51514.0
sbs(g8
g851
tp2055
g0
(g14
g2
Ntp2056
Rp2057
(dp2058
g18
F0.5
sg19
I7495
sg20
g21
((dp2059
I00
I7494
sI01
I1
stp2060
Rp2061
sg25
I2
sg26
F7496.0
sbs(g9
g499
tp2062
g0
(g14
g2
Ntp2063
Rp2064
(dp2065
g18
F0.5
sg19
I51513
sg20
g21
((dp2066
I00
I51504
sI01
I9
stp2067
Rp2068
sg25
I2
sg26
F51514.0
sbs(g8
g1226
tp2069
g0
(g14
g2
Ntp2070
Rp2071
(dp2072
g18
F0.5
sg19
I7495
sg20
g21
((dp2073
I00
I7490
sI01
I5
stp2074
Rp2075
sg25
I2
sg26
F7496.0
sbs(g9
g223
tp2076
g0
(g14
g2
Ntp2077
Rp2078
(dp2079
g18
F0.5
sg19
I51513
sg20
g21
((dp2080
I00
I51512
sI01
I1
stp2081
Rp2082
sg25
I2
sg26
F51514.0
sbs(g8
S'refunded.the'
p2083
tp2084
g0
(g14
g2
Ntp2085
Rp2086
(dp2087
g18
F0.5
sg19
I7495
sg20
g21
((dp2088
I00
I7495
stp2089
Rp2090
sg25
I1
sg26
F7495.5
sbs(g8
S'bringing'
p2091
tp2092
g0
(g14
g2
Ntp2093
Rp2094
(dp2095
g18
F0.5
sg19
I7495
sg20
g21
((dp2096
I00
I7492
sI01
I3
stp2097
Rp2098
sg25
I2
sg26
F7496.0
sbs(g8
g359
tp2099
g0
(g14
g2
Ntp2100
Rp2101
(dp2102
g18
F0.5
sg19
I7495
sg20
g21
((dp2103
I00
I7491
sI01
I4
stp2104
Rp2105
sg25
I2
sg26
F7496.0
sbs(g9
g2091
tp2106
g0
(g14
g2
Ntp2107
Rp2108
(dp2109
g18
F0.5
sg19
I51513
sg20
g21
((dp2110
I00
I51460
sI01
I53
stp2111
Rp2112
sg25
I2
sg26
F51514.0
sbs(g8
g990
tp2113
g0
(g14
g2
Ntp2114
Rp2115
(dp2116
g18
F0.5
sg19
I7495
sg20
g21
((dp2117
I00
I7495
stp2118
Rp2119
sg25
I2
sg26
F7496.0
sbs(g8
g1778
tp2120
g0
(g14
g2
Ntp2121
Rp2122
(dp2123
g18
F0.5
sg19
I7495
sg20
g21
((dp2124
I00
I7495
stp2125
Rp2126
sg25
I2
sg26
F7496.0
sbs(g9
g1885
tp2127
g0
(g14
g2
Ntp2128
Rp2129
(dp2130
g18
F0.5
sg19
I51513
sg20
g21
((dp2131
I00
I51512
sI01
I1
stp2132
Rp2133
sg25
I2
sg26
F51514.0
sbs(g9
g311
tp2134
g0
(g14
g2
Ntp2135
Rp2136
(dp2137
g18
F0.5
sg19
I51513
sg20
g21
((dp2138
I00
I51510
sI01
I3
stp2139
Rp2140
sg25
I2
sg26
F51514.0
sbs(g8
S'*****update*****after'
p2141
tp2142
g0
(g14
g2
Ntp2143
Rp2144
(dp2145
g18
F0.5
sg19
I7495
sg20
g21
((dp2146
I00
I7494
sI01
I1
stp2147
Rp2148
sg25
I2
sg26
F7496.0
sbs(g8
g718
tp2149
g0
(g14
g2
Ntp2150
Rp2151
(dp2152
g18
F0.5
sg19
I7495
sg20
g21
((dp2153
I00
I7495
stp2154
Rp2155
sg25
I2
sg26
F7496.0
sbs(g9
g1487
tp2156
g0
(g14
g2
Ntp2157
Rp2158
(dp2159
g18
F0.5
sg19
I51513
sg20
g21
((dp2160
I00
I51512
sI01
I1
stp2161
Rp2162
sg25
I2
sg26
F51514.0
sbs(g9
S'delivery..'
p2163
tp2164
g0
(g14
g2
Ntp2165
Rp2166
(dp2167
g18
F0.5
sg19
I51513
sg20
g21
((dp2168
I00
I51512
sI01
I1
stp2169
Rp2170
sg25
I2
sg26
F51514.0
sbs(g9
S'yahoo'
p2171
tp2172
g0
(g14
g2
Ntp2173
Rp2174
(dp2175
g18
F0.5
sg19
I51513
sg20
g21
((dp2176
I00
I51493
sI01
I20
stp2177
Rp2178
sg25
I2
sg26
F51514.0
sbs(g9
S'then.now'
p2179
tp2180
g0
(g14
g2
Ntp2181
Rp2182
(dp2183
g18
F0.5
sg19
I51513
sg20
g21
((dp2184
I00
I51513
stp2185
Rp2186
sg25
I1
sg26
F51513.5
sbs(g8
S'comically'
p2187
tp2188
g0
(g14
g2
Ntp2189
Rp2190
(dp2191
g18
F0.5
sg19
I7495
sg20
g21
((dp2192
I00
I7495
stp2193
Rp2194
sg25
I2
sg26
F7496.0
sbs(g9
g1443
tp2195
g0
(g14
g2
Ntp2196
Rp2197
(dp2198
g18
F0.5
sg19
I51513
sg20
g21
((dp2199
I00
I51512
sI01
I1
stp2200
Rp2201
sg25
I2
sg26
F51514.0
sbs(g9
S'igual'
p2202
tp2203
g0
(g14
g2
Ntp2204
Rp2205
(dp2206
g18
F0.5
sg19
I51513
sg20
g21
((dp2207
I00
I51512
sI01
I1
stp2208
Rp2209
sg25
I2
sg26
F51514.0
sbs(g8
g2163
tp2210
g0
(g14
g2
Ntp2211
Rp2212
(dp2213
g18
F0.5
sg19
I7495
sg20
g21
((dp2214
I00
I7495
stp2215
Rp2216
sg25
I2
sg26
F7496.0
sbs(g9
g2187
tp2217
g0
(g14
g2
Ntp2218
Rp2219
(dp2220
g18
F0.5
sg19
I51513
sg20
g21
((dp2221
I00
I51512
sI01
I1
stp2222
Rp2223
sg25
I2
sg26
F51514.0
sbs(g8
g1036
tp2224
g0
(g14
g2
Ntp2225
Rp2226
(dp2227
g18
F0.5
sg19
I7495
sg20
g21
((dp2228
I00
I7495
stp2229
Rp2230
sg25
I2
sg26
F7496.0
sbs(g8
g1472
tp2231
g0
(g14
g2
Ntp2232
Rp2233
(dp2234
g18
F0.5
sg19
I7495
sg20
g21
((dp2235
I00
I7494
sI01
I1
stp2236
Rp2237
sg25
I2
sg26
F7496.0
sbs(g8
g1399
tp2238
g0
(g14
g2
Ntp2239
Rp2240
(dp2241
g18
F0.5
sg19
I7495
sg20
g21
((dp2242
I00
I7495
stp2243
Rp2244
sg25
I1
sg26
F7495.5
sbs(g8
g59
tp2245
g0
(g14
g2
Ntp2246
Rp2247
(dp2248
g18
F0.5
sg19
I7495
sg20
g21
((dp2249
I00
I7495
stp2250
Rp2251
sg25
I2
sg26
F7496.0
sbs(g9
S'protector.buy'
p2252
tp2253
g0
(g14
g2
Ntp2254
Rp2255
(dp2256
g18
F0.5
sg19
I51513
sg20
g21
((dp2257
I00
I51512
sI01
I1
stp2258
Rp2259
sg25
I2
sg26
F51514.0
sbs(g8
g1915
tp2260
g0
(g14
g2
Ntp2261
Rp2262
(dp2263
g18
F0.5
sg19
I7495
sg20
g21
((dp2264
I00
I7390
sI01
I105
stp2265
Rp2266
sg25
I2
sg26
F7496.0
sbs(g9
g43
tp2267
g0
(g14
g2
Ntp2268
Rp2269
(dp2270
g18
F0.5
sg19
I51513
sg20
g21
((dp2271
I00
I51079
sI01
I434
stp2272
Rp2273
sg25
I2
sg26
F51514.0
sbs(g9
g27
tp2274
g0
(g14
g2
Ntp2275
Rp2276
(dp2277
g18
F0.5
sg19
I51513
sg20
g21
((dp2278
I00
I51513
stp2279
Rp2280
sg25
I1
sg26
F51513.5
sbs(g8
S'ear.usage'
p2281
tp2282
g0
(g14
g2
Ntp2283
Rp2284
(dp2285
g18
F0.5
sg19
I7495
sg20
g21
((dp2286
I00
I7495
stp2287
Rp2288
sg25
I2
sg26
F7496.0
sbs(g8
g412
tp2289
g0
(g14
g2
Ntp2290
Rp2291
(dp2292
g18
F0.5
sg19
I7495
sg20
g21
((dp2293
I00
I7495
stp2294
Rp2295
sg25
I2
sg26
F7496.0
sbs(g8
g1983
tp2296
g0
(g14
g2
Ntp2297
Rp2298
(dp2299
g18
F0.5
sg19
I7495
sg20
g21
((dp2300
I00
I7495
stp2301
Rp2302
sg25
I2
sg26
F7496.0
sbs(g8
g1938
tp2303
g0
(g14
g2
Ntp2304
Rp2305
(dp2306
g18
F0.5
sg19
I7495
sg20
g21
((dp2307
I00
I7495
stp2308
Rp2309
sg25
I1
sg26
F7495.5
sbs(g8
g1028
tp2310
g0
(g14
g2
Ntp2311
Rp2312
(dp2313
g18
F0.5
sg19
I7495
sg20
g21
((dp2314
I00
I7495
stp2315
Rp2316
sg25
I2
sg26
F7496.0
sbs(g8
g1839
tp2317
g0
(g14
g2
Ntp2318
Rp2319
(dp2320
g18
F0.5
sg19
I7495
sg20
g21
((dp2321
I00
I7495
stp2322
Rp2323
sg25
I2
sg26
F7496.0
sbs(g8
g1726
tp2324
g0
(g14
g2
Ntp2325
Rp2326
(dp2327
g18
F0.5
sg19
I7495
sg20
g21
((dp2328
I00
I7494
sI01
I1
stp2329
Rp2330
sg25
I2
sg26
F7496.0
sbs(g8
S'overcharge'
p2331
tp2332
g0
(g14
g2
Ntp2333
Rp2334
(dp2335
g18
F0.5
sg19
I7495
sg20
g21
((dp2336
I00
I7495
stp2337
Rp2338
sg25
I2
sg26
F7496.0
sbs(g8
g200
tp2339
g0
(g14
g2
Ntp2340
Rp2341
(dp2342
g18
F0.5
sg19
I7495
sg20
g21
((dp2343
I00
I7495
stp2344
Rp2345
sg25
I1
sg26
F7495.5
sbs(g9
g1770
tp2346
g0
(g14
g2
Ntp2347
Rp2348
(dp2349
g18
F0.5
sg19
I51513
sg20
g21
((dp2350
I00
I51513
stp2351
Rp2352
sg25
I2
sg26
F51514.0
sbs(g8
g1495
tp2353
g0
(g14
g2
Ntp2354
Rp2355
(dp2356
g18
F0.5
sg19
I7495
sg20
g21
((dp2357
I00
I7495
stp2358
Rp2359
sg25
I2
sg26
F7496.0
sbs(g8
g1824
tp2360
g0
(g14
g2
Ntp2361
Rp2362
(dp2363
g18
F0.5
sg19
I7495
sg20
g21
((dp2364
I00
I7495
stp2365
Rp2366
sg25
I2
sg26
F7496.0
sbs(g9
g1562
tp2367
g0
(g14
g2
Ntp2368
Rp2369
(dp2370
g18
F0.5
sg19
I51513
sg20
g21
((dp2371
I00
I51513
stp2372
Rp2373
sg25
I1
sg26
F51513.5
sbs(g9
S'ago.first'
p2374
tp2375
g0
(g14
g2
Ntp2376
Rp2377
(dp2378
g18
F0.5
sg19
I51513
sg20
g21
((dp2379
I00
I51512
sI01
I1
stp2380
Rp2381
sg25
I2
sg26
F51514.0
sbs(g8
g162
tp2382
g0
(g14
g2
Ntp2383
Rp2384
(dp2385
g18
F0.5
sg19
I7495
sg20
g21
((dp2386
I00
I7494
sI01
I1
stp2387
Rp2388
sg25
I2
sg26
F7496.0
sbs(g8
g2012
tp2389
g0
(g14
g2
Ntp2390
Rp2391
(dp2392
g18
F0.5
sg19
I7495
sg20
g21
((dp2393
I00
I7495
stp2394
Rp2395
sg25
I1
sg26
F7495.5
sbs(g8
g889
tp2396
g0
(g14
g2
Ntp2397
Rp2398
(dp2399
g18
F0.5
sg19
I7495
sg20
g21
((dp2400
I00
I7495
stp2401
Rp2402
sg25
I2
sg26
F7496.0
sbs(g9
S'w/flashlight'
p2403
tp2404
g0
(g14
g2
Ntp2405
Rp2406
(dp2407
g18
F0.5
sg19
I51513
sg20
g21
((dp2408
I00
I51512
sI01
I1
stp2409
Rp2410
sg25
I2
sg26
F51514.0
sbs(g8
S'set-cpu'
p2411
tp2412
g0
(g14
g2
Ntp2413
Rp2414
(dp2415
g18
F0.5
sg19
I7495
sg20
g21
((dp2416
I00
I7495
stp2417
Rp2418
sg25
I1
sg26
F7495.5
sbs(g8
g1308
tp2419
g0
(g14
g2
Ntp2420
Rp2421
(dp2422
g18
F0.5
sg19
I7495
sg20
g21
((dp2423
I00
I7494
sI01
I1
stp2424
Rp2425
sg25
I2
sg26
F7496.0
sbs(g9
S'wednesday'
p2426
tp2427
g0
(g14
g2
Ntp2428
Rp2429
(dp2430
g18
F0.5
sg19
I51513
sg20
g21
((dp2431
I00
I51499
sI01
I14
stp2432
Rp2433
sg25
I2
sg26
F51514.0
sbs(g9
S'easily-adjustable'
p2434
tp2435
g0
(g14
g2
Ntp2436
Rp2437
(dp2438
g18
F0.5
sg19
I51513
sg20
g21
((dp2439
I00
I51512
sI01
I1
stp2440
Rp2441
sg25
I2
sg26
F51514.0
sbs(g9
g928
tp2442
g0
(g14
g2
Ntp2443
Rp2444
(dp2445
g18
F0.5
sg19
I51513
sg20
g21
((dp2446
I00
I51512
sI01
I1
stp2447
Rp2448
sg25
I2
sg26
F51514.0
sbs(g9
S'want'
p2449
tp2450
g0
(g14
g2
Ntp2451
Rp2452
(dp2453
g18
F0.5
sg19
I51513
sg20
g21
((dp2454
I00
I47826
sI01
I3687
stp2455
Rp2456
sg25
I2
sg26
F51514.0
sbs(g8
g192
tp2457
g0
(g14
g2
Ntp2458
Rp2459
(dp2460
g18
F0.5
sg19
I7495
sg20
g21
((dp2461
I00
I7495
stp2462
Rp2463
sg25
I2
sg26
F7496.0
sbs(g8
S'i8552'
p2464
tp2465
g0
(g14
g2
Ntp2466
Rp2467
(dp2468
g18
F0.5
sg19
I7495
sg20
g21
((dp2469
I00
I7495
stp2470
Rp2471
sg25
I2
sg26
F7496.0
sbs(g8
g1689
tp2472
g0
(g14
g2
Ntp2473
Rp2474
(dp2475
g18
F0.5
sg19
I7495
sg20
g21
((dp2476
I00
I7495
stp2477
Rp2478
sg25
I2
sg26
F7496.0
sbs(g8
g1681
tp2479
g0
(g14
g2
Ntp2480
Rp2481
(dp2482
g18
F0.5
sg19
I7495
sg20
g21
((dp2483
I00
I7495
stp2484
Rp2485
sg25
I1
sg26
F7495.5
sbs(g8
g1711
tp2486
g0
(g14
g2
Ntp2487
Rp2488
(dp2489
g18
F0.5
sg19
I7495
sg20
g21
((dp2490
I00
I7495
stp2491
Rp2492
sg25
I1
sg26
F7495.5
sbs(g8
S'out.feature'
p2493
tp2494
g0
(g14
g2
Ntp2495
Rp2496
(dp2497
g18
F0.5
sg19
I7495
sg20
g21
((dp2498
I00
I7495
stp2499
Rp2500
sg25
I2
sg26
F7496.0
sbs(g8
g734
tp2501
g0
(g14
g2
Ntp2502
Rp2503
(dp2504
g18
F0.5
sg19
I7495
sg20
g21
((dp2505
I00
I7495
stp2506
Rp2507
sg25
I2
sg26
F7496.0
sbs(g8
S'woods'
p2508
tp2509
g0
(g14
g2
Ntp2510
Rp2511
(dp2512
g18
F0.5
sg19
I7495
sg20
g21
((dp2513
I00
I7494
sI01
I1
stp2514
Rp2515
sg25
I2
sg26
F7496.0
sbs(g9
g1241
tp2516
g0
(g14
g2
Ntp2517
Rp2518
(dp2519
g18
F0.5
sg19
I51513
sg20
g21
((dp2520
I00
I51511
sI01
I2
stp2521
Rp2522
sg25
I2
sg26
F51514.0
sbs(g9
S'controversy'
p2523
tp2524
g0
(g14
g2
Ntp2525
Rp2526
(dp2527
g18
F0.5
sg19
I51513
sg20
g21
((dp2528
I00
I51512
sI01
I1
stp2529
Rp2530
sg25
I2
sg26
F51514.0
sbs(g8
g2449
tp2531
g0
(g14
g2
Ntp2532
Rp2533
(dp2534
g18
F0.5
sg19
I7495
sg20
g21
((dp2535
I00
I6996
sI01
I499
stp2536
Rp2537
sg25
I2
sg26
F7496.0
sbs(g9
g1383
tp2538
g0
(g14
g2
Ntp2539
Rp2540
(dp2541
g18
F0.5
sg19
I51513
sg20
g21
((dp2542
I00
I51513
stp2543
Rp2544
sg25
I2
sg26
F51514.0
sbs(g8
g1104
tp2545
g0
(g14
g2
Ntp2546
Rp2547
(dp2548
g18
F0.5
sg19
I7495
sg20
g21
((dp2549
I00
I7495
stp2550
Rp2551
sg25
I2
sg26
F7496.0
sbs(g8
g2179
tp2552
g0
(g14
g2
Ntp2553
Rp2554
(dp2555
g18
F0.5
sg19
I7495
sg20
g21
((dp2556
I00
I7495
stp2557
Rp2558
sg25
I1
sg26
F7495.5
sbs(g8
g608
tp2559
g0
(g14
g2
Ntp2560
Rp2561
(dp2562
g18
F0.5
sg19
I7495
sg20
g21
((dp2563
I00
I7495
stp2564
Rp2565
sg25
I2
sg26
F7496.0
sbs(g9
g351
tp2566
g0
(g14
g2
Ntp2567
Rp2568
(dp2569
g18
F0.5
sg19
I51513
sg20
g21
((dp2570
I00
I51474
sI01
I39
stp2571
Rp2572
sg25
I2
sg26
F51514.0
sbs(g8
g671
tp2573
g0
(g14
g2
Ntp2574
Rp2575
(dp2576
g18
F0.5
sg19
I7495
sg20
g21
((dp2577
I00
I7495
stp2578
Rp2579
sg25
I2
sg26
F7496.0
sbs(g8
S'fix'
p2580
tp2581
g0
(g14
g2
Ntp2582
Rp2583
(dp2584
g18
F0.5
sg19
I7495
sg20
g21
((dp2585
I00
I7399
sI01
I96
stp2586
Rp2587
sg25
I2
sg26
F7496.0
sbs(g8
g1279
tp2588
g0
(g14
g2
Ntp2589
Rp2590
(dp2591
g18
F0.5
sg19
I7495
sg20
g21
((dp2592
I00
I7494
sI01
I1
stp2593
Rp2594
sg25
I2
sg26
F7496.0
sbs(g8
g303
tp2595
g0
(g14
g2
Ntp2596
Rp2597
(dp2598
g18
F0.5
sg19
I7495
sg20
g21
((dp2599
I00
I7495
stp2600
Rp2601
sg25
I2
sg26
F7496.0
sbs(g8
g2252
tp2602
g0
(g14
g2
Ntp2603
Rp2604
(dp2605
g18
F0.5
sg19
I7495
sg20
g21
((dp2606
I00
I7495
stp2607
Rp2608
sg25
I2
sg26
F7496.0
sbs(g8
g897
tp2609
g0
(g14
g2
Ntp2610
Rp2611
(dp2612
g18
F0.5
sg19
I7495
sg20
g21
((dp2613
I00
I7495
stp2614
Rp2615
sg25
I1
sg26
F7495.5
sbs(g9
g1044
tp2616
g0
(g14
g2
Ntp2617
Rp2618
(dp2619
g18
F0.5
sg19
I51513
sg20
g21
((dp2620
I00
I51512
sI01
I1
stp2621
Rp2622
sg25
I2
sg26
F51514.0
sbs(g9
S'wristlet'
p2623
tp2624
g0
(g14
g2
Ntp2625
Rp2626
(dp2627
g18
F0.5
sg19
I51513
sg20
g21
((dp2628
I00
I51497
sI01
I16
stp2629
Rp2630
sg25
I2
sg26
F51514.0
sbs(g8
g1847
tp2631
g0
(g14
g2
Ntp2632
Rp2633
(dp2634
g18
F0.5
sg19
I7495
sg20
g21
((dp2635
I00
I7495
stp2636
Rp2637
sg25
I2
sg26
F7496.0
sbs(g9
g2580
tp2638
g0
(g14
g2
Ntp2639
Rp2640
(dp2641
g18
F0.5
sg19
I51513
sg20
g21
((dp2642
I00
I51169
sI01
I344
stp2643
Rp2644
sg25
I2
sg26
F51514.0
sbs(g8
g1059
tp2645
g0
(g14
g2
Ntp2646
Rp2647
(dp2648
g18
F0.5
sg19
I7495
sg20
g21
((dp2649
I00
I7495
stp2650
Rp2651
sg25
I2
sg26
F7496.0
sbs(g9
g476
tp2652
g0
(g14
g2
Ntp2653
Rp2654
(dp2655
g18
F0.5
sg19
I51513
sg20
g21
((dp2656
I00
I51178
sI01
I335
stp2657
Rp2658
sg25
I2
sg26
F51514.0
sbs(g9
g2508
tp2659
g0
(g14
g2
Ntp2660
Rp2661
(dp2662
g18
F0.5
sg19
I51513
sg20
g21
((dp2663
I00
I51496
sI01
I17
stp2664
Rp2665
sg25
I2
sg26
F51514.0
sbs(g8
S'mode-screen'
p2666
tp2667
g0
(g14
g2
Ntp2668
Rp2669
(dp2670
g18
F0.5
sg19
I7495
sg20
g21
((dp2671
I00
I7495
stp2672
Rp2673
sg25
I2
sg26
F7496.0
sbs(g8
S'avoiding/removing'
p2674
tp2675
g0
(g14
g2
Ntp2676
Rp2677
(dp2678
g18
F0.5
sg19
I7495
sg20
g21
((dp2679
I00
I7495
stp2680
Rp2681
sg25
I2
sg26
F7496.0
sbs(g9
g1786
tp2682
g0
(g14
g2
Ntp2683
Rp2684
(dp2685
g18
F0.5
sg19
I51513
sg20
g21
((dp2686
I00
I51513
stp2687
Rp2688
sg25
I1
sg26
F51513.5
sbs(g9
g2674
tp2689
g0
(g14
g2
Ntp2690
Rp2691
(dp2692
g18
F0.5
sg19
I51513
sg20
g21
((dp2693
I00
I51512
sI01
I1
stp2694
Rp2695
sg25
I2
sg26
F51514.0
sbs(g9
g1547
tp2696
g0
(g14
g2
Ntp2697
Rp2698
(dp2699
g18
F0.5
sg19
I51513
sg20
g21
((dp2700
I00
I51512
sI01
I1
stp2701
Rp2702
sg25
I2
sg26
F51514.0
sbs(g9
g138
tp2703
g0
(g14
g2
Ntp2704
Rp2705
(dp2706
g18
F0.5
sg19
I51513
sg20
g21
((dp2707
I00
I51512
sI01
I1
stp2708
Rp2709
sg25
I2
sg26
F51514.0
sbs(g8
g1081
tp2710
g0
(g14
g2
Ntp2711
Rp2712
(dp2713
g18
F0.5
sg19
I7495
sg20
g21
((dp2714
I00
I7495
stp2715
Rp2716
sg25
I1
sg26
F7495.5
sbs(g9
g2281
tp2717
g0
(g14
g2
Ntp2718
Rp2719
(dp2720
g18
F0.5
sg19
I51513
sg20
g21
((dp2721
I00
I51512
sI01
I1
stp2722
Rp2723
sg25
I2
sg26
F51514.0
sbs(g8
g2426
tp2724
g0
(g14
g2
Ntp2725
Rp2726
(dp2727
g18
F0.5
sg19
I7495
sg20
g21
((dp2728
I00
I7494
sI01
I1
stp2729
Rp2730
sg25
I2
sg26
F7496.0
sbs(g8
g2623
tp2731
g0
(g14
g2
Ntp2732
Rp2733
(dp2734
g18
F0.5
sg19
I7495
sg20
g21
((dp2735
I00
I7494
sI01
I1
stp2736
Rp2737
sg25
I2
sg26
F7496.0
sbs(g9
g1570
tp2738
g0
(g14
g2
Ntp2739
Rp2740
(dp2741
g18
F0.5
sg19
I51513
sg20
g21
((dp2742
I00
I51512
sI01
I1
stp2743
Rp2744
sg25
I2
sg26
F51514.0
sbs(g8
g1643
tp2745
g0
(g14
g2
Ntp2746
Rp2747
(dp2748
g18
F0.5
sg19
I7495
sg20
g21
((dp2749
I00
I7494
sI01
I1
stp2750
Rp2751
sg25
I2
sg26
F7496.0
sbs(g9
g1877
tp2752
g0
(g14
g2
Ntp2753
Rp2754
(dp2755
g18
F0.5
sg19
I51513
sg20
g21
((dp2756
I00
I51513
stp2757
Rp2758
sg25
I1
sg26
F51513.5
sbs(g8
g1539
tp2759
g0
(g14
g2
Ntp2760
Rp2761
(dp2762
g18
F0.5
sg19
I7495
sg20
g21
((dp2763
I00
I7495
stp2764
Rp2765
sg25
I2
sg26
F7496.0
sbs(g8
g484
tp2766
g0
(g14
g2
Ntp2767
Rp2768
(dp2769
g18
F0.5
sg19
I7495
sg20
g21
((dp2770
I00
I7495
stp2771
Rp2772
sg25
I2
sg26
F7496.0
sbs(g8
g1975
tp2773
g0
(g14
g2
Ntp2774
Rp2775
(dp2776
g18
F0.5
sg19
I7495
sg20
g21
((dp2777
I00
I7494
sI01
I1
stp2778
Rp2779
sg25
I2
sg26
F7496.0
sbs(g8
g1960
tp2780
g0
(g14
g2
Ntp2781
Rp2782
(dp2783
g18
F0.5
sg19
I7495
sg20
g21
((dp2784
I00
I7495
stp2785
Rp2786
sg25
I2
sg26
F7496.0
sbs(g9
g1112
tp2787
g0
(g14
g2
Ntp2788
Rp2789
(dp2790
g18
F0.5
sg19
I51513
sg20
g21
((dp2791
I00
I51484
sI01
I29
stp2792
Rp2793
sg25
I2
sg26
F51514.0
sbs(g8
g600
tp2794
g0
(g14
g2
Ntp2795
Rp2796
(dp2797
g18
F0.5
sg19
I7495
sg20
g21
((dp2798
I00
I7460
sI01
I35
stp2799
Rp2800
sg25
I2
sg26
F7496.0
sbs(g9
g514
tp2801
g0
(g14
g2
Ntp2802
Rp2803
(dp2804
g18
F0.5
sg19
I51513
sg20
g21
((dp2805
I00
I51512
sI01
I1
stp2806
Rp2807
sg25
I2
sg26
F51514.0
sbs(g8
g2523
tp2808
g0
(g14
g2
Ntp2809
Rp2810
(dp2811
g18
F0.5
sg19
I7495
sg20
g21
((dp2812
I00
I7494
sI01
I1
stp2813
Rp2814
sg25
I2
sg26
F7496.0
sbs(g9
g553
tp2815
g0
(g14
g2
Ntp2816
Rp2817
(dp2818
g18
F0.5
sg19
I51513
sg20
g21
((dp2819
I00
I51512
sI01
I1
stp2820
Rp2821
sg25
I2
sg26
F51514.0
sbs(g9
g1673
tp2822
g0
(g14
g2
Ntp2823
Rp2824
(dp2825
g18
F0.5
sg19
I51513
sg20
g21
((dp2826
I00
I51512
sI01
I1
stp2827
Rp2828
sg25
I2
sg26
F51514.0
sbs(g9
g2411
tp2829
g0
(g14
g2
Ntp2830
Rp2831
(dp2832
g18
F0.5
sg19
I51513
sg20
g21
((dp2833
I00
I51513
stp2834
Rp2835
sg25
I1
sg26
F51513.5
sbs(g9
g951
tp2836
g0
(g14
g2
Ntp2837
Rp2838
(dp2839
g18
F0.5
sg19
I51513
sg20
g21
((dp2840
I00
I51512
sI01
I1
stp2841
Rp2842
sg25
I2
sg26
F51514.0
sbs(g9
g319
tp2843
g0
(g14
g2
Ntp2844
Rp2845
(dp2846
g18
F0.5
sg19
I51513
sg20
g21
((dp2847
I00
I51513
stp2848
Rp2849
sg25
I2
sg26
F51514.0
sbs(g9
g2493
tp2850
g0
(g14
g2
Ntp2851
Rp2852
(dp2853
g18
F0.5
sg19
I51513
sg20
g21
((dp2854
I00
I51512
sI01
I1
stp2855
Rp2856
sg25
I2
sg26
F51514.0
sbs(g8
g1741
tp2857
g0
(g14
g2
Ntp2858
Rp2859
(dp2860
g18
F0.5
sg19
I7495
sg20
g21
((dp2861
I00
I7495
stp2862
Rp2863
sg25
I1
sg26
F7495.5
sbs(g9
g2141
tp2864
g0
(g14
g2
Ntp2865
Rp2866
(dp2867
g18
F0.5
sg19
I51513
sg20
g21
((dp2868
I00
I51513
stp2869
Rp2870
sg25
I2
sg26
F51514.0
sbs(g8
g2374
tp2871
g0
(g14
g2
Ntp2872
Rp2873
(dp2874
g18
F0.5
sg19
I7495
sg20
g21
((dp2875
I00
I7495
stp2876
Rp2877
sg25
I2
sg26
F7496.0
sbs(g9
S'goober'
p2878
tp2879
g0
(g14
g2
Ntp2880
Rp2881
(dp2882
g18
F0.5
sg19
I51513
sg20
g21
((dp2883
I00
I51512
sI01
I1
stp2884
Rp2885
sg25
I2
sg26
F51514.0
sbs(g9
g2464
tp2886
g0
(g14
g2
Ntp2887
Rp2888
(dp2889
g18
F0.5
sg19
I51513
sg20
g21
((dp2890
I00
I51512
sI01
I1
stp2891
Rp2892
sg25
I2
sg26
F51514.0
sbs(g8
g1930
tp2893
g0
(g14
g2
Ntp2894
Rp2895
(dp2896
g18
F0.5
sg19
I7495
sg20
g21
((dp2897
I00
I7495
stp2898
Rp2899
sg25
I2
sg26
F7496.0
sbs(g9
g2083
tp2900
g0
(g14
g2
Ntp2901
Rp2902
(dp2903
g18
F0.5
sg19
I51513
sg20
g21
((dp2904
I00
I51513
stp2905
Rp2906
sg25
I1
sg26
F51513.5
sbs(g9
g1345
tp2907
g0
(g14
g2
Ntp2908
Rp2909
(dp2910
g18
F0.5
sg19
I51513
sg20
g21
((dp2911
I00
I51511
sI01
I2
stp2912
Rp2913
sg25
I2
sg26
F51514.0
sbs(g8
g2434
tp2914
g0
(g14
g2
Ntp2915
Rp2916
(dp2917
g18
F0.5
sg19
I7495
sg20
g21
((dp2918
I00
I7495
stp2919
Rp2920
sg25
I2
sg26
F7496.0
sbs(g8
g2878
tp2921
g0
(g14
g2
Ntp2922
Rp2923
(dp2924
g18
F0.5
sg19
I7495
sg20
g21
((dp2925
I00
I7495
stp2926
Rp2927
sg25
I2
sg26
F7496.0
sbs(g8
g2171
tp2928
g0
(g14
g2
Ntp2929
Rp2930
(dp2931
g18
F0.5
sg19
I7495
sg20
g21
((dp2932
I00
I7491
sI01
I4
stp2933
Rp2934
sg25
I2
sg26
F7496.0
sbs(g9
g420
tp2935
g0
(g14
g2
Ntp2936
Rp2937
(dp2938
g18
F0.5
sg19
I51513
sg20
g21
((dp2939
I00
I51512
sI01
I1
stp2940
Rp2941
sg25
I2
sg26
F51514.0
sbs(g8
g773
tp2942
g0
(g14
g2
Ntp2943
Rp2944
(dp2945
g18
F0.5
sg19
I7495
sg20
g21
((dp2946
I00
I7495
stp2947
Rp2948
sg25
I1
sg26
F7495.5
sbs(g9
g436
tp2949
g0
(g14
g2
Ntp2950
Rp2951
(dp2952
g18
F0.5
sg19
I51513
sg20
g21
((dp2953
I00
I51468
sI01
I45
stp2954
Rp2955
sg25
I2
sg26
F51514.0
sbs(g8
g1421
tp2956
g0
(g14
g2
Ntp2957
Rp2958
(dp2959
g18
F0.5
sg19
I7495
sg20
g21
((dp2960
I00
I7495
stp2961
Rp2962
sg25
I1
sg26
F7495.5
sbs(g9
g974
tp2963
g0
(g14
g2
Ntp2964
Rp2965
(dp2966
g18
F0.5
sg19
I51513
sg20
g21
((dp2967
I00
I51513
stp2968
Rp2969
sg25
I2
sg26
F51514.0
sbs(g8
g2403
tp2970
g0
(g14
g2
Ntp2971
Rp2972
(dp2973
g18
F0.5
sg19
I7495
sg20
g21
((dp2974
I00
I7495
stp2975
Rp2976
sg25
I2
sg26
F7496.0
sbs(g8
g827
tp2977
g0
(g14
g2
Ntp2978
Rp2979
(dp2980
g18
F0.5
sg19
I7495
sg20
g21
((dp2981
I00
I7495
stp2982
Rp2983
sg25
I2
sg26
F7496.0
sbs(g8
g2202
tp2984
g0
(g14
g2
Ntp2985
Rp2986
(dp2987
g18
F0.5
sg19
I7495
sg20
g21
((dp2988
I00
I7495
stp2989
Rp2990
sg25
I2
sg26
F7496.0
sbs(g9
g765
tp2991
g0
(g14
g2
Ntp2992
Rp2993
(dp2994
g18
F0.5
sg19
I51513
sg20
g21
((dp2995
I00
I51513
stp2996
Rp2997
sg25
I2
sg26
F51514.0
sbs(g9
g2666
tp2998
g0
(g14
g2
Ntp2999
Rp3000
(dp3001
g18
F0.5
sg19
I51513
sg20
g21
((dp3002
I00
I51512
sI01
I1
stp3003
Rp3004
sg25
I2
sg26
F51514.0
sbs(g9
g2331
tp3005
g0
(g14
g2
Ntp3006
Rp3007
(dp3008
g18
F0.5
sg19
I51513
sg20
g21
((dp3009
I00
I51483
sI01
I30
stp3010
Rp3011
sg25
I2
sg26
F51514.0
sbs(g8
g1794
tp3012
g0
(g14
g2
Ntp3013
Rp3014
(dp3015
g18
F0.5
sg19
I7495
sg20
g21
((dp3016
I00
I7495
stp3017
Rp3018
sg25
I2
sg26
F7496.0
sbssS'_label_probdist'
p3019
g0
(g14
g2
Ntp3020
Rp3021
(dp3022
g18
F0.5
sg19
I59008
sg20
g21
((dp3023
g8
I7495
sg9
I51513
stp3024
Rp3025
sg25
I2
sg26
F59009.0
sbsb.